
Master.elf:     file format elf32-avr

Sections:
Idx Name          Size      VMA       LMA       File off  Algn
  0 .data         00000082  00800200  0000403e  000040d2  2**0
                  CONTENTS, ALLOC, LOAD, DATA
  1 .text         0000403e  00000000  00000000  00000094  2**1
                  CONTENTS, ALLOC, LOAD, READONLY, CODE
  2 .bss          000002da  00800282  00800282  00004154  2**0
                  ALLOC
  3 .comment      00000030  00000000  00000000  00004154  2**0
                  CONTENTS, READONLY
  4 .note.gnu.avr.deviceinfo 00000040  00000000  00000000  00004184  2**2
                  CONTENTS, READONLY
  5 .debug_aranges 000003f8  00000000  00000000  000041c4  2**0
                  CONTENTS, READONLY, DEBUGGING
  6 .debug_info   0000590e  00000000  00000000  000045bc  2**0
                  CONTENTS, READONLY, DEBUGGING
  7 .debug_abbrev 00001805  00000000  00000000  00009eca  2**0
                  CONTENTS, READONLY, DEBUGGING
  8 .debug_line   00002f35  00000000  00000000  0000b6cf  2**0
                  CONTENTS, READONLY, DEBUGGING
  9 .debug_frame  00001010  00000000  00000000  0000e604  2**2
                  CONTENTS, READONLY, DEBUGGING
 10 .debug_str    000020c6  00000000  00000000  0000f614  2**0
                  CONTENTS, READONLY, DEBUGGING
 11 .debug_loc    00003b9b  00000000  00000000  000116da  2**0
                  CONTENTS, READONLY, DEBUGGING
 12 .debug_ranges 00000420  00000000  00000000  00015275  2**0
                  CONTENTS, READONLY, DEBUGGING

Disassembly of section .text:

00000000 <__vectors>:
       0:	98 c0       	rjmp	.+304    	; 0x132 <__ctors_end>
       2:	00 00       	nop
       4:	c7 c0       	rjmp	.+398    	; 0x194 <__bad_interrupt>
       6:	00 00       	nop
       8:	c5 c0       	rjmp	.+394    	; 0x194 <__bad_interrupt>
       a:	00 00       	nop
       c:	f5 c0       	rjmp	.+490    	; 0x1f8 <__vector_3>
       e:	00 00       	nop
      10:	c1 c0       	rjmp	.+386    	; 0x194 <__bad_interrupt>
      12:	00 00       	nop
      14:	bf c0       	rjmp	.+382    	; 0x194 <__bad_interrupt>
      16:	00 00       	nop
      18:	16 c1       	rjmp	.+556    	; 0x246 <__vector_6>
      1a:	00 00       	nop
      1c:	bb c0       	rjmp	.+374    	; 0x194 <__bad_interrupt>
      1e:	00 00       	nop
      20:	b9 c0       	rjmp	.+370    	; 0x194 <__bad_interrupt>
      22:	00 00       	nop
      24:	0c 94 c5 13 	jmp	0x278a	; 0x278a <__vector_9>
      28:	b5 c0       	rjmp	.+362    	; 0x194 <__bad_interrupt>
      2a:	00 00       	nop
      2c:	0c 94 17 14 	jmp	0x282e	; 0x282e <__vector_11>
      30:	b1 c0       	rjmp	.+354    	; 0x194 <__bad_interrupt>
      32:	00 00       	nop
      34:	af c0       	rjmp	.+350    	; 0x194 <__bad_interrupt>
      36:	00 00       	nop
      38:	ad c0       	rjmp	.+346    	; 0x194 <__bad_interrupt>
      3a:	00 00       	nop
      3c:	be c1       	rjmp	.+892    	; 0x3ba <__vector_15>
      3e:	00 00       	nop
      40:	a9 c0       	rjmp	.+338    	; 0x194 <__bad_interrupt>
      42:	00 00       	nop
      44:	a7 c0       	rjmp	.+334    	; 0x194 <__bad_interrupt>
      46:	00 00       	nop
      48:	a5 c0       	rjmp	.+330    	; 0x194 <__bad_interrupt>
      4a:	00 00       	nop
      4c:	a3 c0       	rjmp	.+326    	; 0x194 <__bad_interrupt>
      4e:	00 00       	nop
      50:	a1 c0       	rjmp	.+322    	; 0x194 <__bad_interrupt>
      52:	00 00       	nop
      54:	9f c0       	rjmp	.+318    	; 0x194 <__bad_interrupt>
      56:	00 00       	nop
      58:	9d c0       	rjmp	.+314    	; 0x194 <__bad_interrupt>
      5a:	00 00       	nop
      5c:	1b c1       	rjmp	.+566    	; 0x294 <__vector_23>
      5e:	00 00       	nop
      60:	99 c0       	rjmp	.+306    	; 0x194 <__bad_interrupt>
      62:	00 00       	nop
      64:	0c 94 71 1a 	jmp	0x34e2	; 0x34e2 <__vector_25>
      68:	0c 94 a0 1a 	jmp	0x3540	; 0x3540 <__vector_26>
      6c:	93 c0       	rjmp	.+294    	; 0x194 <__bad_interrupt>
      6e:	00 00       	nop
      70:	91 c0       	rjmp	.+290    	; 0x194 <__bad_interrupt>
      72:	00 00       	nop
      74:	8f c0       	rjmp	.+286    	; 0x194 <__bad_interrupt>
      76:	00 00       	nop
      78:	8d c0       	rjmp	.+282    	; 0x194 <__bad_interrupt>
      7a:	00 00       	nop
      7c:	8b c0       	rjmp	.+278    	; 0x194 <__bad_interrupt>
      7e:	00 00       	nop
      80:	89 c0       	rjmp	.+274    	; 0x194 <__bad_interrupt>
      82:	00 00       	nop
      84:	87 c0       	rjmp	.+270    	; 0x194 <__bad_interrupt>
      86:	00 00       	nop
      88:	85 c0       	rjmp	.+266    	; 0x194 <__bad_interrupt>
      8a:	00 00       	nop
      8c:	83 c0       	rjmp	.+262    	; 0x194 <__bad_interrupt>
      8e:	00 00       	nop
      90:	0c 94 0a 1b 	jmp	0x3614	; 0x3614 <__vector_36>
      94:	0c 94 39 1b 	jmp	0x3672	; 0x3672 <__vector_37>
      98:	7d c0       	rjmp	.+250    	; 0x194 <__bad_interrupt>
      9a:	00 00       	nop
      9c:	7b c0       	rjmp	.+246    	; 0x194 <__bad_interrupt>
      9e:	00 00       	nop
      a0:	79 c0       	rjmp	.+242    	; 0x194 <__bad_interrupt>
      a2:	00 00       	nop
      a4:	77 c0       	rjmp	.+238    	; 0x194 <__bad_interrupt>
      a6:	00 00       	nop
      a8:	75 c0       	rjmp	.+234    	; 0x194 <__bad_interrupt>
      aa:	00 00       	nop
      ac:	73 c0       	rjmp	.+230    	; 0x194 <__bad_interrupt>
      ae:	00 00       	nop
      b0:	71 c0       	rjmp	.+226    	; 0x194 <__bad_interrupt>
      b2:	00 00       	nop
      b4:	6f c0       	rjmp	.+222    	; 0x194 <__bad_interrupt>
      b6:	00 00       	nop
      b8:	6d c0       	rjmp	.+218    	; 0x194 <__bad_interrupt>
      ba:	00 00       	nop
      bc:	6b c0       	rjmp	.+214    	; 0x194 <__bad_interrupt>
      be:	00 00       	nop
      c0:	69 c0       	rjmp	.+210    	; 0x194 <__bad_interrupt>
      c2:	00 00       	nop
      c4:	67 c0       	rjmp	.+206    	; 0x194 <__bad_interrupt>
      c6:	00 00       	nop
      c8:	65 c0       	rjmp	.+202    	; 0x194 <__bad_interrupt>
      ca:	00 00       	nop
      cc:	0c 94 67 1b 	jmp	0x36ce	; 0x36ce <__vector_51>
      d0:	0c 94 96 1b 	jmp	0x372c	; 0x372c <__vector_52>
      d4:	5f c0       	rjmp	.+190    	; 0x194 <__bad_interrupt>
      d6:	00 00       	nop
      d8:	0c 94 f2 1b 	jmp	0x37e4	; 0x37e4 <__vector_54>
      dc:	0c 94 21 1c 	jmp	0x3842	; 0x3842 <__vector_55>
      e0:	59 c0       	rjmp	.+178    	; 0x194 <__bad_interrupt>
      e2:	00 00       	nop
      e4:	08 4a       	sbci	r16, 0xA8	; 168
      e6:	d7 3b       	cpi	r29, 0xB7	; 183
      e8:	3b ce       	rjmp	.-906    	; 0xfffffd60 <__eeprom_end+0xff7efd60>
      ea:	01 6e       	ori	r16, 0xE1	; 225
      ec:	84 bc       	out	0x24, r8	; 36
      ee:	bf fd       	.word	0xfdbf	; ????
      f0:	c1 2f       	mov	r28, r17
      f2:	3d 6c       	ori	r19, 0xCD	; 205
      f4:	74 31       	cpi	r23, 0x14	; 20
      f6:	9a bd       	out	0x2a, r25	; 42
      f8:	56 83       	std	Z+6, r21	; 0x06
      fa:	3d da       	rcall	.-2950   	; 0xfffff576 <__eeprom_end+0xff7ef576>
      fc:	3d 00       	.word	0x003d	; ????
      fe:	c7 7f       	andi	r28, 0xF7	; 247
     100:	11 be       	out	0x31, r1	; 49
     102:	d9 e4       	ldi	r29, 0x49	; 73
     104:	bb 4c       	sbci	r27, 0xCB	; 203
     106:	3e 91       	ld	r19, -X
     108:	6b aa       	std	Y+51, r6	; 0x33
     10a:	aa be       	out	0x3a, r10	; 58
     10c:	00 00       	nop
     10e:	00 80       	ld	r0, Z
     110:	3f 05       	cpc	r19, r15
     112:	a8 4c       	sbci	r26, 0xC8	; 200
     114:	cd b2       	in	r12, 0x1d	; 29
     116:	d4 4e       	sbci	r29, 0xE4	; 228
     118:	b9 38       	cpi	r27, 0x89	; 137
     11a:	36 a9       	ldd	r19, Z+54	; 0x36
     11c:	02 0c       	add	r0, r2
     11e:	50 b9       	out	0x00, r21	; 0
     120:	91 86       	std	Z+9, r9	; 0x09
     122:	88 08       	sbc	r8, r8
     124:	3c a6       	std	Y+44, r3	; 0x2c
     126:	aa aa       	std	Y+50, r10	; 0x32
     128:	2a be       	out	0x3a, r2	; 58
     12a:	00 00       	nop
     12c:	00 80       	ld	r0, Z
     12e:	3f 00       	.word	0x003f	; ????

00000130 <__ctors_start>:
     130:	a3 15       	cp	r26, r3

00000132 <__ctors_end>:
     132:	11 24       	eor	r1, r1
     134:	1f be       	out	0x3f, r1	; 63
     136:	cf ef       	ldi	r28, 0xFF	; 255
     138:	d1 e2       	ldi	r29, 0x21	; 33
     13a:	de bf       	out	0x3e, r29	; 62
     13c:	cd bf       	out	0x3d, r28	; 61
     13e:	00 e0       	ldi	r16, 0x00	; 0
     140:	0c bf       	out	0x3c, r16	; 60

00000142 <__do_copy_data>:
     142:	12 e0       	ldi	r17, 0x02	; 2
     144:	a0 e0       	ldi	r26, 0x00	; 0
     146:	b2 e0       	ldi	r27, 0x02	; 2
     148:	ee e3       	ldi	r30, 0x3E	; 62
     14a:	f0 e4       	ldi	r31, 0x40	; 64
     14c:	00 e0       	ldi	r16, 0x00	; 0
     14e:	0b bf       	out	0x3b, r16	; 59
     150:	02 c0       	rjmp	.+4      	; 0x156 <__do_copy_data+0x14>
     152:	07 90       	elpm	r0, Z+
     154:	0d 92       	st	X+, r0
     156:	a2 38       	cpi	r26, 0x82	; 130
     158:	b1 07       	cpc	r27, r17
     15a:	d9 f7       	brne	.-10     	; 0x152 <__do_copy_data+0x10>

0000015c <__do_clear_bss>:
     15c:	25 e0       	ldi	r18, 0x05	; 5
     15e:	a2 e8       	ldi	r26, 0x82	; 130
     160:	b2 e0       	ldi	r27, 0x02	; 2
     162:	01 c0       	rjmp	.+2      	; 0x166 <.do_clear_bss_start>

00000164 <.do_clear_bss_loop>:
     164:	1d 92       	st	X+, r1

00000166 <.do_clear_bss_start>:
     166:	ac 35       	cpi	r26, 0x5C	; 92
     168:	b2 07       	cpc	r27, r18
     16a:	e1 f7       	brne	.-8      	; 0x164 <.do_clear_bss_loop>

0000016c <__do_global_ctors>:
     16c:	10 e0       	ldi	r17, 0x00	; 0
     16e:	c9 e9       	ldi	r28, 0x99	; 153
     170:	d0 e0       	ldi	r29, 0x00	; 0
     172:	00 e0       	ldi	r16, 0x00	; 0
     174:	06 c0       	rjmp	.+12     	; 0x182 <__do_global_ctors+0x16>
     176:	21 97       	sbiw	r28, 0x01	; 1
     178:	01 09       	sbc	r16, r1
     17a:	80 2f       	mov	r24, r16
     17c:	fe 01       	movw	r30, r28
     17e:	0e 94 15 20 	call	0x402a	; 0x402a <__tablejump2__>
     182:	c8 39       	cpi	r28, 0x98	; 152
     184:	d1 07       	cpc	r29, r17
     186:	80 e0       	ldi	r24, 0x00	; 0
     188:	08 07       	cpc	r16, r24
     18a:	a9 f7       	brne	.-22     	; 0x176 <__do_global_ctors+0xa>
     18c:	0e 94 60 15 	call	0x2ac0	; 0x2ac0 <main>
     190:	0c 94 1d 20 	jmp	0x403a	; 0x403a <_exit>

00000194 <__bad_interrupt>:
     194:	35 cf       	rjmp	.-406    	; 0x0 <__vectors>

00000196 <_ZN7encoder22Init_encoder_interruptEv>:
volatile bool PidUpdateFlagDriveY = true;


void encoder::Init_encoder_interrupt()
{
	sei();
     196:	78 94       	sei
	EICRA = 0b00110000;
     198:	80 e3       	ldi	r24, 0x30	; 48
     19a:	80 93 69 00 	sts	0x0069, r24	; 0x800069 <__TEXT_REGION_LENGTH__+0x700069>
	EICRB = 0b00001100;
     19e:	8c e0       	ldi	r24, 0x0C	; 12
     1a0:	80 93 6a 00 	sts	0x006A, r24	; 0x80006a <__TEXT_REGION_LENGTH__+0x70006a>
	EIMSK |=  (1<<INT2) |(1<<INT5);
     1a4:	8d b3       	in	r24, 0x1d	; 29
     1a6:	84 62       	ori	r24, 0x24	; 36
     1a8:	8d bb       	out	0x1d, r24	; 29
     1aa:	08 95       	ret

000001ac <_ZN7encoder10Init_timerEv>:
}

void encoder::Init_timer()	//FOR SPEED TUNING OF 4 MOTORS
{
	sei();
     1ac:	78 94       	sei
	TCCR0B |= (1<<CS02) | (1<<CS00);
     1ae:	85 b5       	in	r24, 0x25	; 37
     1b0:	85 60       	ori	r24, 0x05	; 5
     1b2:	85 bd       	out	0x25, r24	; 37
	TIMSK0 = (1<<TOIE0);
     1b4:	81 e0       	ldi	r24, 0x01	; 1
     1b6:	80 93 6e 00 	sts	0x006E, r24	; 0x80006e <__TEXT_REGION_LENGTH__+0x70006e>
     1ba:	08 95       	ret

000001bc <_ZN7encoder11getdistanceEv>:
}
float encoder::getdistance()
	{
     1bc:	cf 93       	push	r28
     1be:	df 93       	push	r29
     1c0:	ec 01       	movw	r28, r24
	distance = (3.1415 * encoderdiameter * count_encoder)/(encoderPPR) ; 
     1c2:	68 81       	ld	r22, Y
     1c4:	79 81       	ldd	r23, Y+1	; 0x01
     1c6:	07 2e       	mov	r0, r23
     1c8:	00 0c       	add	r0, r0
     1ca:	88 0b       	sbc	r24, r24
     1cc:	99 0b       	sbc	r25, r25
     1ce:	0e 94 01 1e 	call	0x3c02	; 0x3c02 <__floatsisf>
     1d2:	2e ef       	ldi	r18, 0xFE	; 254
     1d4:	34 e3       	ldi	r19, 0x34	; 52
     1d6:	46 e3       	ldi	r20, 0x36	; 54
     1d8:	53 e4       	ldi	r21, 0x43	; 67
     1da:	0e 94 1a 1f 	call	0x3e34	; 0x3e34 <__mulsf3>
     1de:	20 e0       	ldi	r18, 0x00	; 0
     1e0:	30 e0       	ldi	r19, 0x00	; 0
     1e2:	48 e4       	ldi	r20, 0x48	; 72
     1e4:	53 e4       	ldi	r21, 0x43	; 67
     1e6:	0e 94 66 1d 	call	0x3acc	; 0x3acc <__divsf3>
     1ea:	6c 83       	std	Y+4, r22	; 0x04
     1ec:	7d 83       	std	Y+5, r23	; 0x05
     1ee:	8e 83       	std	Y+6, r24	; 0x06
     1f0:	9f 83       	std	Y+7, r25	; 0x07
	return distance;
}
     1f2:	df 91       	pop	r29
     1f4:	cf 91       	pop	r28
     1f6:	08 95       	ret

000001f8 <__vector_3>:

ISR(INT2_vect)	//for x -axis encoder
{
     1f8:	1f 92       	push	r1
     1fa:	0f 92       	push	r0
     1fc:	0f b6       	in	r0, 0x3f	; 63
     1fe:	0f 92       	push	r0
     200:	11 24       	eor	r1, r1
     202:	0b b6       	in	r0, 0x3b	; 59
     204:	0f 92       	push	r0
     206:	8f 93       	push	r24
     208:	9f 93       	push	r25
     20a:	ef 93       	push	r30
     20c:	ff 93       	push	r31
	if((bit_is_set(PINA,PA0)))
     20e:	00 9b       	sbis	0x00, 0	; 0
     210:	08 c0       	rjmp	.+16     	; 0x222 <__vector_3+0x2a>
			Init_encoder_interrupt();
			Init_timer();
		}
		void Init_encoder_interrupt();
		void Init_timer();
		inline void inc_count(){count_encoder++;};
     212:	eb e8       	ldi	r30, 0x8B	; 139
     214:	f2 e0       	ldi	r31, 0x02	; 2
     216:	80 81       	ld	r24, Z
     218:	91 81       	ldd	r25, Z+1	; 0x01
     21a:	01 96       	adiw	r24, 0x01	; 1
     21c:	91 83       	std	Z+1, r25	; 0x01
     21e:	80 83       	st	Z, r24
     220:	07 c0       	rjmp	.+14     	; 0x230 <__vector_3+0x38>
		inline void dcr_count(){count_encoder--;};
     222:	eb e8       	ldi	r30, 0x8B	; 139
     224:	f2 e0       	ldi	r31, 0x02	; 2
     226:	80 81       	ld	r24, Z
     228:	91 81       	ldd	r25, Z+1	; 0x01
     22a:	01 97       	sbiw	r24, 0x01	; 1
     22c:	91 83       	std	Z+1, r25	; 0x01
     22e:	80 83       	st	Z, r24
	{
		encoderX.inc_count();
	}
	else
		encoderX.dcr_count();
}
     230:	ff 91       	pop	r31
     232:	ef 91       	pop	r30
     234:	9f 91       	pop	r25
     236:	8f 91       	pop	r24
     238:	0f 90       	pop	r0
     23a:	0b be       	out	0x3b, r0	; 59
     23c:	0f 90       	pop	r0
     23e:	0f be       	out	0x3f, r0	; 63
     240:	0f 90       	pop	r0
     242:	1f 90       	pop	r1
     244:	18 95       	reti

00000246 <__vector_6>:

ISR(INT5_vect)	//for y-axis encoder
{
     246:	1f 92       	push	r1
     248:	0f 92       	push	r0
     24a:	0f b6       	in	r0, 0x3f	; 63
     24c:	0f 92       	push	r0
     24e:	11 24       	eor	r1, r1
     250:	0b b6       	in	r0, 0x3b	; 59
     252:	0f 92       	push	r0
     254:	8f 93       	push	r24
     256:	9f 93       	push	r25
     258:	ef 93       	push	r30
     25a:	ff 93       	push	r31
	if((bit_is_set(PINA,PA5)))
     25c:	05 9b       	sbis	0x00, 5	; 0
     25e:	08 c0       	rjmp	.+16     	; 0x270 <__vector_6+0x2a>
			Init_encoder_interrupt();
			Init_timer();
		}
		void Init_encoder_interrupt();
		void Init_timer();
		inline void inc_count(){count_encoder++;};
     260:	e3 e8       	ldi	r30, 0x83	; 131
     262:	f2 e0       	ldi	r31, 0x02	; 2
     264:	80 81       	ld	r24, Z
     266:	91 81       	ldd	r25, Z+1	; 0x01
     268:	01 96       	adiw	r24, 0x01	; 1
     26a:	91 83       	std	Z+1, r25	; 0x01
     26c:	80 83       	st	Z, r24
     26e:	07 c0       	rjmp	.+14     	; 0x27e <__vector_6+0x38>
		inline void dcr_count(){count_encoder--;};
     270:	e3 e8       	ldi	r30, 0x83	; 131
     272:	f2 e0       	ldi	r31, 0x02	; 2
     274:	80 81       	ld	r24, Z
     276:	91 81       	ldd	r25, Z+1	; 0x01
     278:	01 97       	sbiw	r24, 0x01	; 1
     27a:	91 83       	std	Z+1, r25	; 0x01
     27c:	80 83       	st	Z, r24
	{
		encoderY.inc_count();
	}
	else
		encoderY.dcr_count();
}
     27e:	ff 91       	pop	r31
     280:	ef 91       	pop	r30
     282:	9f 91       	pop	r25
     284:	8f 91       	pop	r24
     286:	0f 90       	pop	r0
     288:	0b be       	out	0x3b, r0	; 59
     28a:	0f 90       	pop	r0
     28c:	0f be       	out	0x3f, r0	; 63
     28e:	0f 90       	pop	r0
     290:	1f 90       	pop	r1
     292:	18 95       	reti

00000294 <__vector_23>:

ISR(TIMER0_OVF_vect)
{
     294:	1f 92       	push	r1
     296:	0f 92       	push	r0
     298:	0f b6       	in	r0, 0x3f	; 63
     29a:	0f 92       	push	r0
     29c:	11 24       	eor	r1, r1
     29e:	8f 93       	push	r24
	PidUpdateFlagCompass = true;
     2a0:	81 e0       	ldi	r24, 0x01	; 1
     2a2:	80 93 02 02 	sts	0x0202, r24	; 0x800202 <PidUpdateFlagCompass>
	PidUpdateFlagLinetracker = true;
     2a6:	80 93 03 02 	sts	0x0203, r24	; 0x800203 <PidUpdateFlagLinetracker>
 
	PidUpdateFlagDriveX = true;
     2aa:	80 93 01 02 	sts	0x0201, r24	; 0x800201 <PidUpdateFlagDriveX>
	PidUpdateFlagDriveY = true;
     2ae:	80 93 00 02 	sts	0x0200, r24	; 0x800200 <PidUpdateFlagDriveY>
	
     2b2:	8f 91       	pop	r24
     2b4:	0f 90       	pop	r0
     2b6:	0f be       	out	0x3f, r0	; 63
     2b8:	0f 90       	pop	r0
     2ba:	1f 90       	pop	r1
     2bc:	18 95       	reti

000002be <_Z13init_HMC5883Lv>:
			compass.SETPOINT = angle_Average;
			
		}
 	}
	else if(FlagInitialAngleSetpoint){
		 compass.SETPOINT = initialCompassAngle;
     2be:	0e 94 d6 19 	call	0x33ac	; 0x33ac <_Z8i2c_initv>
     2c2:	8c e3       	ldi	r24, 0x3C	; 60
     2c4:	0e 94 dc 19 	call	0x33b8	; 0x33b8 <_Z9i2c_starth>
     2c8:	80 e0       	ldi	r24, 0x00	; 0
     2ca:	0e 94 49 1a 	call	0x3492	; 0x3492 <_Z9i2c_writeh>
     2ce:	80 e7       	ldi	r24, 0x70	; 112
     2d0:	0e 94 49 1a 	call	0x3492	; 0x3492 <_Z9i2c_writeh>
     2d4:	0e 94 05 1a 	call	0x340a	; 0x340a <_Z8i2c_stopv>
     2d8:	8c e3       	ldi	r24, 0x3C	; 60
     2da:	0e 94 dc 19 	call	0x33b8	; 0x33b8 <_Z9i2c_starth>
     2de:	81 e0       	ldi	r24, 0x01	; 1
     2e0:	0e 94 49 1a 	call	0x3492	; 0x3492 <_Z9i2c_writeh>
     2e4:	80 ea       	ldi	r24, 0xA0	; 160
     2e6:	0e 94 49 1a 	call	0x3492	; 0x3492 <_Z9i2c_writeh>
     2ea:	0e 94 05 1a 	call	0x340a	; 0x340a <_Z8i2c_stopv>
     2ee:	8c e3       	ldi	r24, 0x3C	; 60
     2f0:	0e 94 dc 19 	call	0x33b8	; 0x33b8 <_Z9i2c_starth>
     2f4:	82 e0       	ldi	r24, 0x02	; 2
     2f6:	0e 94 49 1a 	call	0x3492	; 0x3492 <_Z9i2c_writeh>
     2fa:	80 e0       	ldi	r24, 0x00	; 0
     2fc:	0e 94 49 1a 	call	0x3492	; 0x3492 <_Z9i2c_writeh>
     300:	0c 94 05 1a 	jmp	0x340a	; 0x340a <_Z8i2c_stopv>
     304:	08 95       	ret

00000306 <_Z12read_Compassv>:
     306:	8c e3       	ldi	r24, 0x3C	; 60
     308:	0e 94 dc 19 	call	0x33b8	; 0x33b8 <_Z9i2c_starth>
     30c:	83 e0       	ldi	r24, 0x03	; 3
     30e:	0e 94 49 1a 	call	0x3492	; 0x3492 <_Z9i2c_writeh>
     312:	0e 94 05 1a 	call	0x340a	; 0x340a <_Z8i2c_stopv>
     316:	8d e3       	ldi	r24, 0x3D	; 61
     318:	0e 94 03 1a 	call	0x3406	; 0x3406 <_Z13i2c_rep_starth>
     31c:	0e 94 5b 1a 	call	0x34b6	; 0x34b6 <_Z11i2c_readAckv>
     320:	10 92 45 04 	sts	0x0445, r1	; 0x800445 <raw_x>
     324:	80 93 46 04 	sts	0x0446, r24	; 0x800446 <raw_x+0x1>
     328:	0e 94 5b 1a 	call	0x34b6	; 0x34b6 <_Z11i2c_readAckv>
     32c:	20 91 45 04 	lds	r18, 0x0445	; 0x800445 <raw_x>
     330:	30 91 46 04 	lds	r19, 0x0446	; 0x800446 <raw_x+0x1>
     334:	28 2b       	or	r18, r24
     336:	30 93 46 04 	sts	0x0446, r19	; 0x800446 <raw_x+0x1>
     33a:	20 93 45 04 	sts	0x0445, r18	; 0x800445 <raw_x>
     33e:	0e 94 5b 1a 	call	0x34b6	; 0x34b6 <_Z11i2c_readAckv>
     342:	10 92 41 04 	sts	0x0441, r1	; 0x800441 <raw_z>
     346:	80 93 42 04 	sts	0x0442, r24	; 0x800442 <raw_z+0x1>
     34a:	0e 94 5b 1a 	call	0x34b6	; 0x34b6 <_Z11i2c_readAckv>
     34e:	20 91 41 04 	lds	r18, 0x0441	; 0x800441 <raw_z>
     352:	30 91 42 04 	lds	r19, 0x0442	; 0x800442 <raw_z+0x1>
     356:	28 2b       	or	r18, r24
     358:	30 93 42 04 	sts	0x0442, r19	; 0x800442 <raw_z+0x1>
     35c:	20 93 41 04 	sts	0x0441, r18	; 0x800441 <raw_z>
     360:	0e 94 5b 1a 	call	0x34b6	; 0x34b6 <_Z11i2c_readAckv>
     364:	10 92 43 04 	sts	0x0443, r1	; 0x800443 <raw_y>
     368:	80 93 44 04 	sts	0x0444, r24	; 0x800444 <raw_y+0x1>
     36c:	0e 94 66 1a 	call	0x34cc	; 0x34cc <_Z11i2c_readNakv>
     370:	20 91 43 04 	lds	r18, 0x0443	; 0x800443 <raw_y>
     374:	30 91 44 04 	lds	r19, 0x0444	; 0x800444 <raw_y+0x1>
     378:	28 2b       	or	r18, r24
     37a:	30 93 44 04 	sts	0x0444, r19	; 0x800444 <raw_y+0x1>
     37e:	20 93 43 04 	sts	0x0443, r18	; 0x800443 <raw_y>
     382:	0c 94 05 1a 	jmp	0x340a	; 0x340a <_Z8i2c_stopv>
     386:	08 95       	ret

00000388 <_Z6millisv>:
     388:	2f b7       	in	r18, 0x3f	; 63
     38a:	f8 94       	cli
     38c:	60 91 3d 04 	lds	r22, 0x043D	; 0x80043d <timer2_millis>
     390:	70 91 3e 04 	lds	r23, 0x043E	; 0x80043e <timer2_millis+0x1>
     394:	80 91 3f 04 	lds	r24, 0x043F	; 0x80043f <timer2_millis+0x2>
     398:	90 91 40 04 	lds	r25, 0x0440	; 0x800440 <timer2_millis+0x3>
     39c:	2f bf       	out	0x3f, r18	; 63
     39e:	08 95       	ret

000003a0 <_Z21initialise_timeperiodv>:
     3a0:	e1 eb       	ldi	r30, 0xB1	; 177
     3a2:	f0 e0       	ldi	r31, 0x00	; 0
     3a4:	80 81       	ld	r24, Z
     3a6:	84 60       	ori	r24, 0x04	; 4
     3a8:	80 83       	st	Z, r24
     3aa:	e0 e7       	ldi	r30, 0x70	; 112
     3ac:	f0 e0       	ldi	r31, 0x00	; 0
     3ae:	80 81       	ld	r24, Z
     3b0:	81 60       	ori	r24, 0x01	; 1
     3b2:	80 83       	st	Z, r24
     3b4:	10 92 b2 00 	sts	0x00B2, r1	; 0x8000b2 <__TEXT_REGION_LENGTH__+0x7000b2>
     3b8:	08 95       	ret

000003ba <__vector_15>:
     3ba:	1f 92       	push	r1
     3bc:	0f 92       	push	r0
     3be:	0f b6       	in	r0, 0x3f	; 63
     3c0:	0f 92       	push	r0
     3c2:	11 24       	eor	r1, r1
     3c4:	8f 93       	push	r24
     3c6:	9f 93       	push	r25
     3c8:	af 93       	push	r26
     3ca:	bf 93       	push	r27
     3cc:	80 91 3d 04 	lds	r24, 0x043D	; 0x80043d <timer2_millis>
     3d0:	90 91 3e 04 	lds	r25, 0x043E	; 0x80043e <timer2_millis+0x1>
     3d4:	a0 91 3f 04 	lds	r26, 0x043F	; 0x80043f <timer2_millis+0x2>
     3d8:	b0 91 40 04 	lds	r27, 0x0440	; 0x800440 <timer2_millis+0x3>
     3dc:	01 96       	adiw	r24, 0x01	; 1
     3de:	a1 1d       	adc	r26, r1
     3e0:	b1 1d       	adc	r27, r1
     3e2:	80 93 3d 04 	sts	0x043D, r24	; 0x80043d <timer2_millis>
     3e6:	90 93 3e 04 	sts	0x043E, r25	; 0x80043e <timer2_millis+0x1>
     3ea:	a0 93 3f 04 	sts	0x043F, r26	; 0x80043f <timer2_millis+0x2>
     3ee:	b0 93 40 04 	sts	0x0440, r27	; 0x800440 <timer2_millis+0x3>
     3f2:	80 91 39 04 	lds	r24, 0x0439	; 0x800439 <timer2_fract>
     3f6:	90 91 3a 04 	lds	r25, 0x043A	; 0x80043a <timer2_fract+0x1>
     3fa:	a0 91 3b 04 	lds	r26, 0x043B	; 0x80043b <timer2_fract+0x2>
     3fe:	b0 91 3c 04 	lds	r27, 0x043C	; 0x80043c <timer2_fract+0x3>
     402:	03 96       	adiw	r24, 0x03	; 3
     404:	a1 1d       	adc	r26, r1
     406:	b1 1d       	adc	r27, r1
     408:	80 93 39 04 	sts	0x0439, r24	; 0x800439 <timer2_fract>
     40c:	90 93 3a 04 	sts	0x043A, r25	; 0x80043a <timer2_fract+0x1>
     410:	a0 93 3b 04 	sts	0x043B, r26	; 0x80043b <timer2_fract+0x2>
     414:	b0 93 3c 04 	sts	0x043C, r27	; 0x80043c <timer2_fract+0x3>
     418:	80 91 39 04 	lds	r24, 0x0439	; 0x800439 <timer2_fract>
     41c:	90 91 3a 04 	lds	r25, 0x043A	; 0x80043a <timer2_fract+0x1>
     420:	a0 91 3b 04 	lds	r26, 0x043B	; 0x80043b <timer2_fract+0x2>
     424:	b0 91 3c 04 	lds	r27, 0x043C	; 0x80043c <timer2_fract+0x3>
     428:	8d 37       	cpi	r24, 0x7D	; 125
     42a:	91 05       	cpc	r25, r1
     42c:	a1 05       	cpc	r26, r1
     42e:	b1 05       	cpc	r27, r1
     430:	38 f1       	brcs	.+78     	; 0x480 <__LOCK_REGION_LENGTH__+0x80>
     432:	80 91 39 04 	lds	r24, 0x0439	; 0x800439 <timer2_fract>
     436:	90 91 3a 04 	lds	r25, 0x043A	; 0x80043a <timer2_fract+0x1>
     43a:	a0 91 3b 04 	lds	r26, 0x043B	; 0x80043b <timer2_fract+0x2>
     43e:	b0 91 3c 04 	lds	r27, 0x043C	; 0x80043c <timer2_fract+0x3>
     442:	8d 57       	subi	r24, 0x7D	; 125
     444:	91 09       	sbc	r25, r1
     446:	a1 09       	sbc	r26, r1
     448:	b1 09       	sbc	r27, r1
     44a:	80 93 39 04 	sts	0x0439, r24	; 0x800439 <timer2_fract>
     44e:	90 93 3a 04 	sts	0x043A, r25	; 0x80043a <timer2_fract+0x1>
     452:	a0 93 3b 04 	sts	0x043B, r26	; 0x80043b <timer2_fract+0x2>
     456:	b0 93 3c 04 	sts	0x043C, r27	; 0x80043c <timer2_fract+0x3>
     45a:	80 91 3d 04 	lds	r24, 0x043D	; 0x80043d <timer2_millis>
     45e:	90 91 3e 04 	lds	r25, 0x043E	; 0x80043e <timer2_millis+0x1>
     462:	a0 91 3f 04 	lds	r26, 0x043F	; 0x80043f <timer2_millis+0x2>
     466:	b0 91 40 04 	lds	r27, 0x0440	; 0x800440 <timer2_millis+0x3>
     46a:	01 96       	adiw	r24, 0x01	; 1
     46c:	a1 1d       	adc	r26, r1
     46e:	b1 1d       	adc	r27, r1
     470:	80 93 3d 04 	sts	0x043D, r24	; 0x80043d <timer2_millis>
     474:	90 93 3e 04 	sts	0x043E, r25	; 0x80043e <timer2_millis+0x1>
     478:	a0 93 3f 04 	sts	0x043F, r26	; 0x80043f <timer2_millis+0x2>
     47c:	b0 93 40 04 	sts	0x0440, r27	; 0x800440 <timer2_millis+0x3>
     480:	bf 91       	pop	r27
     482:	af 91       	pop	r26
     484:	9f 91       	pop	r25
     486:	8f 91       	pop	r24
     488:	0f 90       	pop	r0
     48a:	0f be       	out	0x3f, r0	; 63
     48c:	0f 90       	pop	r0
     48e:	1f 90       	pop	r1
     490:	18 95       	reti

00000492 <_Z8initGY88v>:
     492:	15 df       	rcall	.-470    	; 0x2be <_Z13init_HMC5883Lv>
     494:	80 ec       	ldi	r24, 0xC0	; 192
     496:	93 e0       	ldi	r25, 0x03	; 3
     498:	0e 94 27 16 	call	0x2c4e	; 0x2c4e <_ZN7MPU60504InitEv>
     49c:	62 e3       	ldi	r22, 0x32	; 50
     49e:	80 ec       	ldi	r24, 0xC0	; 192
     4a0:	93 e0       	ldi	r25, 0x03	; 3
     4a2:	0e 94 da 17 	call	0x2fb4	; 0x2fb4 <_ZN7MPU605013calibrateGyroEh>
     4a6:	7c df       	rcall	.-264    	; 0x3a0 <_Z21initialise_timeperiodv>
     4a8:	6f df       	rcall	.-290    	; 0x388 <_Z6millisv>
     4aa:	60 93 a4 03 	sts	0x03A4, r22	; 0x8003a4 <previousTime>
     4ae:	70 93 a5 03 	sts	0x03A5, r23	; 0x8003a5 <previousTime+0x1>
     4b2:	80 93 a6 03 	sts	0x03A6, r24	; 0x8003a6 <previousTime+0x2>
     4b6:	90 93 a7 03 	sts	0x03A7, r25	; 0x8003a7 <previousTime+0x3>
     4ba:	08 95       	ret

000004bc <_Z25compass_tilt_compensationfffff>:
     4bc:	4f 92       	push	r4
     4be:	5f 92       	push	r5
     4c0:	6f 92       	push	r6
     4c2:	7f 92       	push	r7
     4c4:	8f 92       	push	r8
     4c6:	9f 92       	push	r9
     4c8:	af 92       	push	r10
     4ca:	bf 92       	push	r11
     4cc:	cf 92       	push	r12
     4ce:	df 92       	push	r13
     4d0:	ef 92       	push	r14
     4d2:	ff 92       	push	r15
     4d4:	0f 93       	push	r16
     4d6:	1f 93       	push	r17
     4d8:	cf 93       	push	r28
     4da:	df 93       	push	r29
     4dc:	cd b7       	in	r28, 0x3d	; 61
     4de:	de b7       	in	r29, 0x3e	; 62
     4e0:	64 97       	sbiw	r28, 0x14	; 20
     4e2:	0f b6       	in	r0, 0x3f	; 63
     4e4:	f8 94       	cli
     4e6:	de bf       	out	0x3e, r29	; 62
     4e8:	0f be       	out	0x3f, r0	; 63
     4ea:	cd bf       	out	0x3d, r28	; 61
     4ec:	69 83       	std	Y+1, r22	; 0x01
     4ee:	7a 83       	std	Y+2, r23	; 0x02
     4f0:	8b 83       	std	Y+3, r24	; 0x03
     4f2:	9c 83       	std	Y+4, r25	; 0x04
     4f4:	29 01       	movw	r4, r18
     4f6:	3a 01       	movw	r6, r20
     4f8:	e9 8a       	std	Y+17, r14	; 0x11
     4fa:	fa 8a       	std	Y+18, r15	; 0x12
     4fc:	0b 8b       	std	Y+19, r16	; 0x13
     4fe:	1c 8b       	std	Y+20, r17	; 0x14
     500:	0e 94 63 1d 	call	0x3ac6	; 0x3ac6 <cos>
     504:	6d 87       	std	Y+13, r22	; 0x0d
     506:	7e 87       	std	Y+14, r23	; 0x0e
     508:	8f 87       	std	Y+15, r24	; 0x0f
     50a:	98 8b       	std	Y+16, r25	; 0x10
     50c:	69 81       	ldd	r22, Y+1	; 0x01
     50e:	7a 81       	ldd	r23, Y+2	; 0x02
     510:	8b 81       	ldd	r24, Y+3	; 0x03
     512:	9c 81       	ldd	r25, Y+4	; 0x04
     514:	0e 94 7d 1f 	call	0x3efa	; 0x3efa <sin>
     518:	69 83       	std	Y+1, r22	; 0x01
     51a:	7a 83       	std	Y+2, r23	; 0x02
     51c:	8b 83       	std	Y+3, r24	; 0x03
     51e:	9c 83       	std	Y+4, r25	; 0x04
     520:	c3 01       	movw	r24, r6
     522:	b2 01       	movw	r22, r4
     524:	0e 94 63 1d 	call	0x3ac6	; 0x3ac6 <cos>
     528:	6d 83       	std	Y+5, r22	; 0x05
     52a:	7e 83       	std	Y+6, r23	; 0x06
     52c:	8f 83       	std	Y+7, r24	; 0x07
     52e:	98 87       	std	Y+8, r25	; 0x08
     530:	c3 01       	movw	r24, r6
     532:	b2 01       	movw	r22, r4
     534:	0e 94 7d 1f 	call	0x3efa	; 0x3efa <sin>
     538:	69 87       	std	Y+9, r22	; 0x09
     53a:	7a 87       	std	Y+10, r23	; 0x0a
     53c:	8b 87       	std	Y+11, r24	; 0x0b
     53e:	9c 87       	std	Y+12, r25	; 0x0c
     540:	a6 01       	movw	r20, r12
     542:	95 01       	movw	r18, r10
     544:	6d 81       	ldd	r22, Y+5	; 0x05
     546:	7e 81       	ldd	r23, Y+6	; 0x06
     548:	8f 81       	ldd	r24, Y+7	; 0x07
     54a:	98 85       	ldd	r25, Y+8	; 0x08
     54c:	0e 94 1a 1f 	call	0x3e34	; 0x3e34 <__mulsf3>
     550:	2b 01       	movw	r4, r22
     552:	3c 01       	movw	r6, r24
     554:	28 a5       	ldd	r18, Y+40	; 0x28
     556:	39 a5       	ldd	r19, Y+41	; 0x29
     558:	4a a5       	ldd	r20, Y+42	; 0x2a
     55a:	5b a5       	ldd	r21, Y+43	; 0x2b
     55c:	69 85       	ldd	r22, Y+9	; 0x09
     55e:	7a 85       	ldd	r23, Y+10	; 0x0a
     560:	8b 85       	ldd	r24, Y+11	; 0x0b
     562:	9c 85       	ldd	r25, Y+12	; 0x0c
     564:	0e 94 1a 1f 	call	0x3e34	; 0x3e34 <__mulsf3>
     568:	9b 01       	movw	r18, r22
     56a:	ac 01       	movw	r20, r24
     56c:	c3 01       	movw	r24, r6
     56e:	b2 01       	movw	r22, r4
     570:	0e 94 98 1c 	call	0x3930	; 0x3930 <__subsf3>
     574:	2b 01       	movw	r4, r22
     576:	3c 01       	movw	r6, r24
     578:	a6 01       	movw	r20, r12
     57a:	95 01       	movw	r18, r10
     57c:	69 81       	ldd	r22, Y+1	; 0x01
     57e:	7a 81       	ldd	r23, Y+2	; 0x02
     580:	8b 81       	ldd	r24, Y+3	; 0x03
     582:	9c 81       	ldd	r25, Y+4	; 0x04
     584:	0e 94 1a 1f 	call	0x3e34	; 0x3e34 <__mulsf3>
     588:	29 85       	ldd	r18, Y+9	; 0x09
     58a:	3a 85       	ldd	r19, Y+10	; 0x0a
     58c:	4b 85       	ldd	r20, Y+11	; 0x0b
     58e:	5c 85       	ldd	r21, Y+12	; 0x0c
     590:	0e 94 1a 1f 	call	0x3e34	; 0x3e34 <__mulsf3>
     594:	4b 01       	movw	r8, r22
     596:	5c 01       	movw	r10, r24
     598:	a8 01       	movw	r20, r16
     59a:	97 01       	movw	r18, r14
     59c:	6d 85       	ldd	r22, Y+13	; 0x0d
     59e:	7e 85       	ldd	r23, Y+14	; 0x0e
     5a0:	8f 85       	ldd	r24, Y+15	; 0x0f
     5a2:	98 89       	ldd	r25, Y+16	; 0x10
     5a4:	0e 94 1a 1f 	call	0x3e34	; 0x3e34 <__mulsf3>
     5a8:	9b 01       	movw	r18, r22
     5aa:	ac 01       	movw	r20, r24
     5ac:	c5 01       	movw	r24, r10
     5ae:	b4 01       	movw	r22, r8
     5b0:	0e 94 98 1c 	call	0x3930	; 0x3930 <__subsf3>
     5b4:	4b 01       	movw	r8, r22
     5b6:	5c 01       	movw	r10, r24
     5b8:	28 a5       	ldd	r18, Y+40	; 0x28
     5ba:	39 a5       	ldd	r19, Y+41	; 0x29
     5bc:	4a a5       	ldd	r20, Y+42	; 0x2a
     5be:	5b a5       	ldd	r21, Y+43	; 0x2b
     5c0:	69 81       	ldd	r22, Y+1	; 0x01
     5c2:	7a 81       	ldd	r23, Y+2	; 0x02
     5c4:	8b 81       	ldd	r24, Y+3	; 0x03
     5c6:	9c 81       	ldd	r25, Y+4	; 0x04
     5c8:	0e 94 1a 1f 	call	0x3e34	; 0x3e34 <__mulsf3>
     5cc:	2d 81       	ldd	r18, Y+5	; 0x05
     5ce:	3e 81       	ldd	r19, Y+6	; 0x06
     5d0:	4f 81       	ldd	r20, Y+7	; 0x07
     5d2:	58 85       	ldd	r21, Y+8	; 0x08
     5d4:	0e 94 1a 1f 	call	0x3e34	; 0x3e34 <__mulsf3>
     5d8:	9b 01       	movw	r18, r22
     5da:	ac 01       	movw	r20, r24
     5dc:	c5 01       	movw	r24, r10
     5de:	b4 01       	movw	r22, r8
     5e0:	0e 94 99 1c 	call	0x3932	; 0x3932 <__addsf3>
     5e4:	90 58       	subi	r25, 0x80	; 128
     5e6:	a3 01       	movw	r20, r6
     5e8:	92 01       	movw	r18, r4
     5ea:	0e 94 0c 1d 	call	0x3a18	; 0x3a18 <atan2>
     5ee:	21 ee       	ldi	r18, 0xE1	; 225
     5f0:	3e e2       	ldi	r19, 0x2E	; 46
     5f2:	45 e6       	ldi	r20, 0x65	; 101
     5f4:	52 e4       	ldi	r21, 0x42	; 66
     5f6:	0e 94 1a 1f 	call	0x3e34	; 0x3e34 <__mulsf3>
     5fa:	0e 94 ce 1d 	call	0x3b9c	; 0x3b9c <__fixsfsi>
     5fe:	9b 01       	movw	r18, r22
     600:	77 23       	and	r23, r23
     602:	14 f4       	brge	.+4      	; 0x608 <_Z25compass_tilt_compensationfffff+0x14c>
     604:	28 59       	subi	r18, 0x98	; 152
     606:	3e 4f       	sbci	r19, 0xFE	; 254
     608:	c9 01       	movw	r24, r18
     60a:	64 96       	adiw	r28, 0x14	; 20
     60c:	0f b6       	in	r0, 0x3f	; 63
     60e:	f8 94       	cli
     610:	de bf       	out	0x3e, r29	; 62
     612:	0f be       	out	0x3f, r0	; 63
     614:	cd bf       	out	0x3d, r28	; 61
     616:	df 91       	pop	r29
     618:	cf 91       	pop	r28
     61a:	1f 91       	pop	r17
     61c:	0f 91       	pop	r16
     61e:	ff 90       	pop	r15
     620:	ef 90       	pop	r14
     622:	df 90       	pop	r13
     624:	cf 90       	pop	r12
     626:	bf 90       	pop	r11
     628:	af 90       	pop	r10
     62a:	9f 90       	pop	r9
     62c:	8f 90       	pop	r8
     62e:	7f 90       	pop	r7
     630:	6f 90       	pop	r6
     632:	5f 90       	pop	r5
     634:	4f 90       	pop	r4
     636:	08 95       	ret

00000638 <_Z10getYawGY88v>:
     638:	4f 92       	push	r4
     63a:	5f 92       	push	r5
     63c:	6f 92       	push	r6
     63e:	7f 92       	push	r7
     640:	af 92       	push	r10
     642:	bf 92       	push	r11
     644:	cf 92       	push	r12
     646:	df 92       	push	r13
     648:	ef 92       	push	r14
     64a:	ff 92       	push	r15
     64c:	0f 93       	push	r16
     64e:	1f 93       	push	r17
     650:	cf 93       	push	r28
     652:	df 93       	push	r29
     654:	cd b7       	in	r28, 0x3d	; 61
     656:	de b7       	in	r29, 0x3e	; 62
     658:	64 97       	sbiw	r28, 0x14	; 20
     65a:	0f b6       	in	r0, 0x3f	; 63
     65c:	f8 94       	cli
     65e:	de bf       	out	0x3e, r29	; 62
     660:	0f be       	out	0x3f, r0	; 63
     662:	cd bf       	out	0x3d, r28	; 61
     664:	60 ec       	ldi	r22, 0xC0	; 192
     666:	73 e0       	ldi	r23, 0x03	; 3
     668:	ce 01       	movw	r24, r28
     66a:	01 96       	adiw	r24, 0x01	; 1
     66c:	0e 94 c8 16 	call	0x2d90	; 0x2d90 <_ZN7MPU605018readNormalizeAccelEv>
     670:	8c e0       	ldi	r24, 0x0C	; 12
     672:	fe 01       	movw	r30, r28
     674:	31 96       	adiw	r30, 0x01	; 1
     676:	a8 e9       	ldi	r26, 0x98	; 152
     678:	b3 e0       	ldi	r27, 0x03	; 3
     67a:	01 90       	ld	r0, Z+
     67c:	0d 92       	st	X+, r0
     67e:	8a 95       	dec	r24
     680:	e1 f7       	brne	.-8      	; 0x67a <_Z10getYawGY88v+0x42>
     682:	80 ec       	ldi	r24, 0xC0	; 192
     684:	93 e0       	ldi	r25, 0x03	; 3
     686:	0e 94 65 19 	call	0x32ca	; 0x32ca <_ZN7MPU60508rateGyroEv>
     68a:	08 e9       	ldi	r16, 0x98	; 152
     68c:	13 e0       	ldi	r17, 0x03	; 3
     68e:	f8 01       	movw	r30, r16
     690:	40 84       	ldd	r4, Z+8	; 0x08
     692:	51 84       	ldd	r5, Z+9	; 0x09
     694:	62 84       	ldd	r6, Z+10	; 0x0a
     696:	73 84       	ldd	r7, Z+11	; 0x0b
     698:	60 81       	ld	r22, Z
     69a:	71 81       	ldd	r23, Z+1	; 0x01
     69c:	82 81       	ldd	r24, Z+2	; 0x02
     69e:	93 81       	ldd	r25, Z+3	; 0x03
     6a0:	a3 01       	movw	r20, r6
     6a2:	92 01       	movw	r18, r4
     6a4:	0e 94 0c 1d 	call	0x3a18	; 0x3a18 <atan2>
     6a8:	21 ee       	ldi	r18, 0xE1	; 225
     6aa:	3e e2       	ldi	r19, 0x2E	; 46
     6ac:	45 e6       	ldi	r20, 0x65	; 101
     6ae:	52 e4       	ldi	r21, 0x42	; 66
     6b0:	0e 94 1a 1f 	call	0x3e34	; 0x3e34 <__mulsf3>
     6b4:	60 93 bc 03 	sts	0x03BC, r22	; 0x8003bc <_ZL15unfiltered_roll>
     6b8:	70 93 bd 03 	sts	0x03BD, r23	; 0x8003bd <_ZL15unfiltered_roll+0x1>
     6bc:	80 93 be 03 	sts	0x03BE, r24	; 0x8003be <_ZL15unfiltered_roll+0x2>
     6c0:	90 93 bf 03 	sts	0x03BF, r25	; 0x8003bf <_ZL15unfiltered_roll+0x3>
     6c4:	f8 01       	movw	r30, r16
     6c6:	64 81       	ldd	r22, Z+4	; 0x04
     6c8:	75 81       	ldd	r23, Z+5	; 0x05
     6ca:	86 81       	ldd	r24, Z+6	; 0x06
     6cc:	97 81       	ldd	r25, Z+7	; 0x07
     6ce:	a3 01       	movw	r20, r6
     6d0:	92 01       	movw	r18, r4
     6d2:	0e 94 0c 1d 	call	0x3a18	; 0x3a18 <atan2>
     6d6:	21 ee       	ldi	r18, 0xE1	; 225
     6d8:	3e e2       	ldi	r19, 0x2E	; 46
     6da:	45 e6       	ldi	r20, 0x65	; 101
     6dc:	52 e4       	ldi	r21, 0x42	; 66
     6de:	0e 94 1a 1f 	call	0x3e34	; 0x3e34 <__mulsf3>
     6e2:	60 93 b8 03 	sts	0x03B8, r22	; 0x8003b8 <_ZL16unfiltered_pitch>
     6e6:	70 93 b9 03 	sts	0x03B9, r23	; 0x8003b9 <_ZL16unfiltered_pitch+0x1>
     6ea:	80 93 ba 03 	sts	0x03BA, r24	; 0x8003ba <_ZL16unfiltered_pitch+0x2>
     6ee:	90 93 bb 03 	sts	0x03BB, r25	; 0x8003bb <_ZL16unfiltered_pitch+0x3>
     6f2:	09 de       	rcall	.-1006   	; 0x306 <_Z12read_Compassv>
     6f4:	49 de       	rcall	.-878    	; 0x388 <_Z6millisv>
     6f6:	00 91 a4 03 	lds	r16, 0x03A4	; 0x8003a4 <previousTime>
     6fa:	10 91 a5 03 	lds	r17, 0x03A5	; 0x8003a5 <previousTime+0x1>
     6fe:	20 91 a6 03 	lds	r18, 0x03A6	; 0x8003a6 <previousTime+0x2>
     702:	30 91 a7 03 	lds	r19, 0x03A7	; 0x8003a7 <previousTime+0x3>
     706:	60 17       	cp	r22, r16
     708:	71 07       	cpc	r23, r17
     70a:	82 07       	cpc	r24, r18
     70c:	93 07       	cpc	r25, r19
     70e:	09 f4       	brne	.+2      	; 0x712 <_Z10getYawGY88v+0xda>
     710:	49 c1       	rjmp	.+658    	; 0x9a4 <_Z10getYawGY88v+0x36c>
     712:	3a de       	rcall	.-908    	; 0x388 <_Z6millisv>
     714:	60 93 a4 03 	sts	0x03A4, r22	; 0x8003a4 <previousTime>
     718:	70 93 a5 03 	sts	0x03A5, r23	; 0x8003a5 <previousTime+0x1>
     71c:	80 93 a6 03 	sts	0x03A6, r24	; 0x8003a6 <previousTime+0x2>
     720:	90 93 a7 03 	sts	0x03A7, r25	; 0x8003a7 <previousTime+0x3>
     724:	80 91 3b 02 	lds	r24, 0x023B	; 0x80023b <readFirstData>
     728:	88 23       	and	r24, r24
     72a:	91 f1       	breq	.+100    	; 0x790 <_Z10getYawGY88v+0x158>
     72c:	80 91 bc 03 	lds	r24, 0x03BC	; 0x8003bc <_ZL15unfiltered_roll>
     730:	90 91 bd 03 	lds	r25, 0x03BD	; 0x8003bd <_ZL15unfiltered_roll+0x1>
     734:	a0 91 be 03 	lds	r26, 0x03BE	; 0x8003be <_ZL15unfiltered_roll+0x2>
     738:	b0 91 bf 03 	lds	r27, 0x03BF	; 0x8003bf <_ZL15unfiltered_roll+0x3>
     73c:	80 93 b0 03 	sts	0x03B0, r24	; 0x8003b0 <_ZL13filtered_roll>
     740:	90 93 b1 03 	sts	0x03B1, r25	; 0x8003b1 <_ZL13filtered_roll+0x1>
     744:	a0 93 b2 03 	sts	0x03B2, r26	; 0x8003b2 <_ZL13filtered_roll+0x2>
     748:	b0 93 b3 03 	sts	0x03B3, r27	; 0x8003b3 <_ZL13filtered_roll+0x3>
     74c:	80 91 b8 03 	lds	r24, 0x03B8	; 0x8003b8 <_ZL16unfiltered_pitch>
     750:	90 91 b9 03 	lds	r25, 0x03B9	; 0x8003b9 <_ZL16unfiltered_pitch+0x1>
     754:	a0 91 ba 03 	lds	r26, 0x03BA	; 0x8003ba <_ZL16unfiltered_pitch+0x2>
     758:	b0 91 bb 03 	lds	r27, 0x03BB	; 0x8003bb <_ZL16unfiltered_pitch+0x3>
     75c:	80 93 ac 03 	sts	0x03AC, r24	; 0x8003ac <_ZL14filtered_pitch>
     760:	90 93 ad 03 	sts	0x03AD, r25	; 0x8003ad <_ZL14filtered_pitch+0x1>
     764:	a0 93 ae 03 	sts	0x03AE, r26	; 0x8003ae <_ZL14filtered_pitch+0x2>
     768:	b0 93 af 03 	sts	0x03AF, r27	; 0x8003af <_ZL14filtered_pitch+0x3>
     76c:	80 91 b4 03 	lds	r24, 0x03B4	; 0x8003b4 <_ZL14unfiltered_yaw>
     770:	90 91 b5 03 	lds	r25, 0x03B5	; 0x8003b5 <_ZL14unfiltered_yaw+0x1>
     774:	a0 91 b6 03 	lds	r26, 0x03B6	; 0x8003b6 <_ZL14unfiltered_yaw+0x2>
     778:	b0 91 b7 03 	lds	r27, 0x03B7	; 0x8003b7 <_ZL14unfiltered_yaw+0x3>
     77c:	80 93 a8 03 	sts	0x03A8, r24	; 0x8003a8 <_ZL12filtered_yaw>
     780:	90 93 a9 03 	sts	0x03A9, r25	; 0x8003a9 <_ZL12filtered_yaw+0x1>
     784:	a0 93 aa 03 	sts	0x03AA, r26	; 0x8003aa <_ZL12filtered_yaw+0x2>
     788:	b0 93 ab 03 	sts	0x03AB, r27	; 0x8003ab <_ZL12filtered_yaw+0x3>
     78c:	10 92 3b 02 	sts	0x023B, r1	; 0x80023b <readFirstData>
     790:	80 ec       	ldi	r24, 0xC0	; 192
     792:	93 e0       	ldi	r25, 0x03	; 3
     794:	0e 94 be 19 	call	0x337c	; 0x337c <_ZN7MPU605012getGyroRateXEv>
     798:	2f e6       	ldi	r18, 0x6F	; 111
     79a:	32 e1       	ldi	r19, 0x12	; 18
     79c:	43 e8       	ldi	r20, 0x83	; 131
     79e:	5a e3       	ldi	r21, 0x3A	; 58
     7a0:	0e 94 1a 1f 	call	0x3e34	; 0x3e34 <__mulsf3>
     7a4:	20 91 b0 03 	lds	r18, 0x03B0	; 0x8003b0 <_ZL13filtered_roll>
     7a8:	30 91 b1 03 	lds	r19, 0x03B1	; 0x8003b1 <_ZL13filtered_roll+0x1>
     7ac:	40 91 b2 03 	lds	r20, 0x03B2	; 0x8003b2 <_ZL13filtered_roll+0x2>
     7b0:	50 91 b3 03 	lds	r21, 0x03B3	; 0x8003b3 <_ZL13filtered_roll+0x3>
     7b4:	0e 94 99 1c 	call	0x3932	; 0x3932 <__addsf3>
     7b8:	2b e7       	ldi	r18, 0x7B	; 123
     7ba:	34 e1       	ldi	r19, 0x14	; 20
     7bc:	4e e6       	ldi	r20, 0x6E	; 110
     7be:	5f e3       	ldi	r21, 0x3F	; 63
     7c0:	0e 94 1a 1f 	call	0x3e34	; 0x3e34 <__mulsf3>
     7c4:	2b 01       	movw	r4, r22
     7c6:	3c 01       	movw	r6, r24
     7c8:	29 e2       	ldi	r18, 0x29	; 41
     7ca:	3c e5       	ldi	r19, 0x5C	; 92
     7cc:	4f e8       	ldi	r20, 0x8F	; 143
     7ce:	5d e3       	ldi	r21, 0x3D	; 61
     7d0:	60 91 bc 03 	lds	r22, 0x03BC	; 0x8003bc <_ZL15unfiltered_roll>
     7d4:	70 91 bd 03 	lds	r23, 0x03BD	; 0x8003bd <_ZL15unfiltered_roll+0x1>
     7d8:	80 91 be 03 	lds	r24, 0x03BE	; 0x8003be <_ZL15unfiltered_roll+0x2>
     7dc:	90 91 bf 03 	lds	r25, 0x03BF	; 0x8003bf <_ZL15unfiltered_roll+0x3>
     7e0:	0e 94 1a 1f 	call	0x3e34	; 0x3e34 <__mulsf3>
     7e4:	9b 01       	movw	r18, r22
     7e6:	ac 01       	movw	r20, r24
     7e8:	c3 01       	movw	r24, r6
     7ea:	b2 01       	movw	r22, r4
     7ec:	0e 94 99 1c 	call	0x3932	; 0x3932 <__addsf3>
     7f0:	60 93 b0 03 	sts	0x03B0, r22	; 0x8003b0 <_ZL13filtered_roll>
     7f4:	70 93 b1 03 	sts	0x03B1, r23	; 0x8003b1 <_ZL13filtered_roll+0x1>
     7f8:	80 93 b2 03 	sts	0x03B2, r24	; 0x8003b2 <_ZL13filtered_roll+0x2>
     7fc:	90 93 b3 03 	sts	0x03B3, r25	; 0x8003b3 <_ZL13filtered_roll+0x3>
     800:	80 ec       	ldi	r24, 0xC0	; 192
     802:	93 e0       	ldi	r25, 0x03	; 3
     804:	0e 94 c6 19 	call	0x338c	; 0x338c <_ZN7MPU605012getGyroRateYEv>
     808:	2f e6       	ldi	r18, 0x6F	; 111
     80a:	32 e1       	ldi	r19, 0x12	; 18
     80c:	43 e8       	ldi	r20, 0x83	; 131
     80e:	5a e3       	ldi	r21, 0x3A	; 58
     810:	0e 94 1a 1f 	call	0x3e34	; 0x3e34 <__mulsf3>
     814:	20 91 ac 03 	lds	r18, 0x03AC	; 0x8003ac <_ZL14filtered_pitch>
     818:	30 91 ad 03 	lds	r19, 0x03AD	; 0x8003ad <_ZL14filtered_pitch+0x1>
     81c:	40 91 ae 03 	lds	r20, 0x03AE	; 0x8003ae <_ZL14filtered_pitch+0x2>
     820:	50 91 af 03 	lds	r21, 0x03AF	; 0x8003af <_ZL14filtered_pitch+0x3>
     824:	0e 94 99 1c 	call	0x3932	; 0x3932 <__addsf3>
     828:	2b e7       	ldi	r18, 0x7B	; 123
     82a:	34 e1       	ldi	r19, 0x14	; 20
     82c:	4e e6       	ldi	r20, 0x6E	; 110
     82e:	5f e3       	ldi	r21, 0x3F	; 63
     830:	0e 94 1a 1f 	call	0x3e34	; 0x3e34 <__mulsf3>
     834:	2b 01       	movw	r4, r22
     836:	3c 01       	movw	r6, r24
     838:	29 e2       	ldi	r18, 0x29	; 41
     83a:	3c e5       	ldi	r19, 0x5C	; 92
     83c:	4f e8       	ldi	r20, 0x8F	; 143
     83e:	5d e3       	ldi	r21, 0x3D	; 61
     840:	60 91 b8 03 	lds	r22, 0x03B8	; 0x8003b8 <_ZL16unfiltered_pitch>
     844:	70 91 b9 03 	lds	r23, 0x03B9	; 0x8003b9 <_ZL16unfiltered_pitch+0x1>
     848:	80 91 ba 03 	lds	r24, 0x03BA	; 0x8003ba <_ZL16unfiltered_pitch+0x2>
     84c:	90 91 bb 03 	lds	r25, 0x03BB	; 0x8003bb <_ZL16unfiltered_pitch+0x3>
     850:	0e 94 1a 1f 	call	0x3e34	; 0x3e34 <__mulsf3>
     854:	9b 01       	movw	r18, r22
     856:	ac 01       	movw	r20, r24
     858:	c3 01       	movw	r24, r6
     85a:	b2 01       	movw	r22, r4
     85c:	0e 94 99 1c 	call	0x3932	; 0x3932 <__addsf3>
     860:	2b 01       	movw	r4, r22
     862:	3c 01       	movw	r6, r24
     864:	60 93 ac 03 	sts	0x03AC, r22	; 0x8003ac <_ZL14filtered_pitch>
     868:	70 93 ad 03 	sts	0x03AD, r23	; 0x8003ad <_ZL14filtered_pitch+0x1>
     86c:	80 93 ae 03 	sts	0x03AE, r24	; 0x8003ae <_ZL14filtered_pitch+0x2>
     870:	90 93 af 03 	sts	0x03AF, r25	; 0x8003af <_ZL14filtered_pitch+0x3>
     874:	60 91 43 04 	lds	r22, 0x0443	; 0x800443 <raw_y>
     878:	70 91 44 04 	lds	r23, 0x0444	; 0x800444 <raw_y+0x1>
     87c:	07 2e       	mov	r0, r23
     87e:	00 0c       	add	r0, r0
     880:	88 0b       	sbc	r24, r24
     882:	99 0b       	sbc	r25, r25
     884:	0e 94 01 1e 	call	0x3c02	; 0x3c02 <__floatsisf>
     888:	5b 01       	movw	r10, r22
     88a:	6c 01       	movw	r12, r24
     88c:	60 91 45 04 	lds	r22, 0x0445	; 0x800445 <raw_x>
     890:	70 91 46 04 	lds	r23, 0x0446	; 0x800446 <raw_x+0x1>
     894:	07 2e       	mov	r0, r23
     896:	00 0c       	add	r0, r0
     898:	88 0b       	sbc	r24, r24
     89a:	99 0b       	sbc	r25, r25
     89c:	0e 94 01 1e 	call	0x3c02	; 0x3c02 <__floatsisf>
     8a0:	6d 87       	std	Y+13, r22	; 0x0d
     8a2:	7e 87       	std	Y+14, r23	; 0x0e
     8a4:	8f 87       	std	Y+15, r24	; 0x0f
     8a6:	98 8b       	std	Y+16, r25	; 0x10
     8a8:	25 e3       	ldi	r18, 0x35	; 53
     8aa:	3a ef       	ldi	r19, 0xFA	; 250
     8ac:	4e e8       	ldi	r20, 0x8E	; 142
     8ae:	5c e3       	ldi	r21, 0x3C	; 60
     8b0:	c3 01       	movw	r24, r6
     8b2:	b2 01       	movw	r22, r4
     8b4:	0e 94 1a 1f 	call	0x3e34	; 0x3e34 <__mulsf3>
     8b8:	69 8b       	std	Y+17, r22	; 0x11
     8ba:	7a 8b       	std	Y+18, r23	; 0x12
     8bc:	8b 8b       	std	Y+19, r24	; 0x13
     8be:	9c 8b       	std	Y+20, r25	; 0x14
     8c0:	25 e3       	ldi	r18, 0x35	; 53
     8c2:	3a ef       	ldi	r19, 0xFA	; 250
     8c4:	4e e8       	ldi	r20, 0x8E	; 142
     8c6:	5c e3       	ldi	r21, 0x3C	; 60
     8c8:	60 91 b0 03 	lds	r22, 0x03B0	; 0x8003b0 <_ZL13filtered_roll>
     8cc:	70 91 b1 03 	lds	r23, 0x03B1	; 0x8003b1 <_ZL13filtered_roll+0x1>
     8d0:	80 91 b2 03 	lds	r24, 0x03B2	; 0x8003b2 <_ZL13filtered_roll+0x2>
     8d4:	90 91 b3 03 	lds	r25, 0x03B3	; 0x8003b3 <_ZL13filtered_roll+0x3>
     8d8:	0e 94 1a 1f 	call	0x3e34	; 0x3e34 <__mulsf3>
     8dc:	2b 01       	movw	r4, r22
     8de:	3c 01       	movw	r6, r24
     8e0:	60 91 41 04 	lds	r22, 0x0441	; 0x800441 <raw_z>
     8e4:	70 91 42 04 	lds	r23, 0x0442	; 0x800442 <raw_z+0x1>
     8e8:	07 2e       	mov	r0, r23
     8ea:	00 0c       	add	r0, r0
     8ec:	88 0b       	sbc	r24, r24
     8ee:	99 0b       	sbc	r25, r25
     8f0:	0e 94 01 1e 	call	0x3c02	; 0x3c02 <__floatsisf>
     8f4:	9f 93       	push	r25
     8f6:	8f 93       	push	r24
     8f8:	7f 93       	push	r23
     8fa:	6f 93       	push	r22
     8fc:	ed 84       	ldd	r14, Y+13	; 0x0d
     8fe:	fe 84       	ldd	r15, Y+14	; 0x0e
     900:	0f 85       	ldd	r16, Y+15	; 0x0f
     902:	18 89       	ldd	r17, Y+16	; 0x10
     904:	29 89       	ldd	r18, Y+17	; 0x11
     906:	3a 89       	ldd	r19, Y+18	; 0x12
     908:	4b 89       	ldd	r20, Y+19	; 0x13
     90a:	5c 89       	ldd	r21, Y+20	; 0x14
     90c:	c3 01       	movw	r24, r6
     90e:	b2 01       	movw	r22, r4
     910:	d5 dd       	rcall	.-1110   	; 0x4bc <_Z25compass_tilt_compensationfffff>
     912:	0f 90       	pop	r0
     914:	0f 90       	pop	r0
     916:	0f 90       	pop	r0
     918:	0f 90       	pop	r0
     91a:	bc 01       	movw	r22, r24
     91c:	80 e0       	ldi	r24, 0x00	; 0
     91e:	90 e0       	ldi	r25, 0x00	; 0
     920:	0e 94 ff 1d 	call	0x3bfe	; 0x3bfe <__floatunsisf>
     924:	60 93 b4 03 	sts	0x03B4, r22	; 0x8003b4 <_ZL14unfiltered_yaw>
     928:	70 93 b5 03 	sts	0x03B5, r23	; 0x8003b5 <_ZL14unfiltered_yaw+0x1>
     92c:	80 93 b6 03 	sts	0x03B6, r24	; 0x8003b6 <_ZL14unfiltered_yaw+0x2>
     930:	90 93 b7 03 	sts	0x03B7, r25	; 0x8003b7 <_ZL14unfiltered_yaw+0x3>
     934:	80 ec       	ldi	r24, 0xC0	; 192
     936:	93 e0       	ldi	r25, 0x03	; 3
     938:	0e 94 ce 19 	call	0x339c	; 0x339c <_ZN7MPU605012getGyroRateZEv>
     93c:	2f e6       	ldi	r18, 0x6F	; 111
     93e:	32 e1       	ldi	r19, 0x12	; 18
     940:	43 e8       	ldi	r20, 0x83	; 131
     942:	5a e3       	ldi	r21, 0x3A	; 58
     944:	0e 94 1a 1f 	call	0x3e34	; 0x3e34 <__mulsf3>
     948:	20 91 a8 03 	lds	r18, 0x03A8	; 0x8003a8 <_ZL12filtered_yaw>
     94c:	30 91 a9 03 	lds	r19, 0x03A9	; 0x8003a9 <_ZL12filtered_yaw+0x1>
     950:	40 91 aa 03 	lds	r20, 0x03AA	; 0x8003aa <_ZL12filtered_yaw+0x2>
     954:	50 91 ab 03 	lds	r21, 0x03AB	; 0x8003ab <_ZL12filtered_yaw+0x3>
     958:	0e 94 99 1c 	call	0x3932	; 0x3932 <__addsf3>
     95c:	2d ec       	ldi	r18, 0xCD	; 205
     95e:	3c ec       	ldi	r19, 0xCC	; 204
     960:	4c ec       	ldi	r20, 0xCC	; 204
     962:	5d e3       	ldi	r21, 0x3D	; 61
     964:	0e 94 1a 1f 	call	0x3e34	; 0x3e34 <__mulsf3>
     968:	2b 01       	movw	r4, r22
     96a:	3c 01       	movw	r6, r24
     96c:	26 e6       	ldi	r18, 0x66	; 102
     96e:	36 e6       	ldi	r19, 0x66	; 102
     970:	46 e6       	ldi	r20, 0x66	; 102
     972:	5f e3       	ldi	r21, 0x3F	; 63
     974:	60 91 b4 03 	lds	r22, 0x03B4	; 0x8003b4 <_ZL14unfiltered_yaw>
     978:	70 91 b5 03 	lds	r23, 0x03B5	; 0x8003b5 <_ZL14unfiltered_yaw+0x1>
     97c:	80 91 b6 03 	lds	r24, 0x03B6	; 0x8003b6 <_ZL14unfiltered_yaw+0x2>
     980:	90 91 b7 03 	lds	r25, 0x03B7	; 0x8003b7 <_ZL14unfiltered_yaw+0x3>
     984:	0e 94 1a 1f 	call	0x3e34	; 0x3e34 <__mulsf3>
     988:	9b 01       	movw	r18, r22
     98a:	ac 01       	movw	r20, r24
     98c:	c3 01       	movw	r24, r6
     98e:	b2 01       	movw	r22, r4
     990:	0e 94 99 1c 	call	0x3932	; 0x3932 <__addsf3>
     994:	60 93 a8 03 	sts	0x03A8, r22	; 0x8003a8 <_ZL12filtered_yaw>
     998:	70 93 a9 03 	sts	0x03A9, r23	; 0x8003a9 <_ZL12filtered_yaw+0x1>
     99c:	80 93 aa 03 	sts	0x03AA, r24	; 0x8003aa <_ZL12filtered_yaw+0x2>
     9a0:	90 93 ab 03 	sts	0x03AB, r25	; 0x8003ab <_ZL12filtered_yaw+0x3>
     9a4:	60 91 a8 03 	lds	r22, 0x03A8	; 0x8003a8 <_ZL12filtered_yaw>
     9a8:	70 91 a9 03 	lds	r23, 0x03A9	; 0x8003a9 <_ZL12filtered_yaw+0x1>
     9ac:	80 91 aa 03 	lds	r24, 0x03AA	; 0x8003aa <_ZL12filtered_yaw+0x2>
     9b0:	90 91 ab 03 	lds	r25, 0x03AB	; 0x8003ab <_ZL12filtered_yaw+0x3>
     9b4:	0e 94 d3 1d 	call	0x3ba6	; 0x3ba6 <__fixunssfsi>
     9b8:	cb 01       	movw	r24, r22
     9ba:	64 96       	adiw	r28, 0x14	; 20
     9bc:	0f b6       	in	r0, 0x3f	; 63
     9be:	f8 94       	cli
     9c0:	de bf       	out	0x3e, r29	; 62
     9c2:	0f be       	out	0x3f, r0	; 63
     9c4:	cd bf       	out	0x3d, r28	; 61
     9c6:	df 91       	pop	r29
     9c8:	cf 91       	pop	r28
     9ca:	1f 91       	pop	r17
     9cc:	0f 91       	pop	r16
     9ce:	ff 90       	pop	r15
     9d0:	ef 90       	pop	r14
     9d2:	df 90       	pop	r13
     9d4:	cf 90       	pop	r12
     9d6:	bf 90       	pop	r11
     9d8:	af 90       	pop	r10
     9da:	7f 90       	pop	r7
     9dc:	6f 90       	pop	r6
     9de:	5f 90       	pop	r5
     9e0:	4f 90       	pop	r4
     9e2:	08 95       	ret

000009e4 <_Z10BrakeMotorv>:
     9e4:	e8 e0       	ldi	r30, 0x08	; 8
     9e6:	f1 e0       	ldi	r31, 0x01	; 1
     9e8:	90 81       	ld	r25, Z
     9ea:	81 e0       	ldi	r24, 0x01	; 1
     9ec:	89 27       	eor	r24, r25
     9ee:	80 83       	st	Z, r24
     9f0:	08 95       	ret

000009f2 <_Z15sendDataToSlavev>:
     9f2:	cf 93       	push	r28
     9f4:	df 93       	push	r29
     9f6:	8f e7       	ldi	r24, 0x7F	; 127
     9f8:	0e 94 dd 1b 	call	0x37ba	; 0x37ba <_Z10uart2_putch>
     9fc:	cc e8       	ldi	r28, 0x8C	; 140
     9fe:	d3 e0       	ldi	r29, 0x03	; 3
     a00:	88 81       	ld	r24, Y
     a02:	0e 94 dd 1b 	call	0x37ba	; 0x37ba <_Z10uart2_putch>
     a06:	89 81       	ldd	r24, Y+1	; 0x01
     a08:	0e 94 dd 1b 	call	0x37ba	; 0x37ba <_Z10uart2_putch>
     a0c:	8a 81       	ldd	r24, Y+2	; 0x02
     a0e:	0e 94 dd 1b 	call	0x37ba	; 0x37ba <_Z10uart2_putch>
     a12:	8b 81       	ldd	r24, Y+3	; 0x03
     a14:	0e 94 dd 1b 	call	0x37ba	; 0x37ba <_Z10uart2_putch>
     a18:	df 91       	pop	r29
     a1a:	cf 91       	pop	r28
     a1c:	08 95       	ret

00000a1e <_Z19getLineTrackerYdatav>:
     a1e:	4f 92       	push	r4
     a20:	5f 92       	push	r5
     a22:	6f 92       	push	r6
     a24:	7f 92       	push	r7
     a26:	af 92       	push	r10
     a28:	bf 92       	push	r11
     a2a:	cf 92       	push	r12
     a2c:	df 92       	push	r13
     a2e:	ef 92       	push	r14
     a30:	ff 92       	push	r15
     a32:	0f 93       	push	r16
     a34:	1f 93       	push	r17
     a36:	cf 93       	push	r28
     a38:	df 93       	push	r29
     a3a:	0f 2e       	mov	r0, r31
     a3c:	f1 e7       	ldi	r31, 0x71	; 113
     a3e:	ef 2e       	mov	r14, r31
     a40:	f2 e0       	ldi	r31, 0x02	; 2
     a42:	ff 2e       	mov	r15, r31
     a44:	f0 2d       	mov	r31, r0
     a46:	09 e5       	ldi	r16, 0x59	; 89
     a48:	13 e0       	ldi	r17, 0x03	; 3
     a4a:	c0 e0       	ldi	r28, 0x00	; 0
     a4c:	d0 e0       	ldi	r29, 0x00	; 0
     a4e:	cc 24       	eor	r12, r12
     a50:	c3 94       	inc	r12
     a52:	d1 2c       	mov	r13, r1
     a54:	86 b1       	in	r24, 0x06	; 6
     a56:	90 e0       	ldi	r25, 0x00	; 0
     a58:	0c 2e       	mov	r0, r28
     a5a:	02 c0       	rjmp	.+4      	; 0xa60 <_Z19getLineTrackerYdatav+0x42>
     a5c:	95 95       	asr	r25
     a5e:	87 95       	ror	r24
     a60:	0a 94       	dec	r0
     a62:	e2 f7       	brpl	.-8      	; 0xa5c <_Z19getLineTrackerYdatav+0x3e>
     a64:	80 ff       	sbrs	r24, 0
     a66:	10 c0       	rjmp	.+32     	; 0xa88 <_Z19getLineTrackerYdatav+0x6a>
     a68:	f8 01       	movw	r30, r16
     a6a:	d1 82       	std	Z+1, r13	; 0x01
     a6c:	c0 82       	st	Z, r12
     a6e:	20 91 73 03 	lds	r18, 0x0373	; 0x800373 <_ZL9linestate>
     a72:	c6 01       	movw	r24, r12
     a74:	0c 2e       	mov	r0, r28
     a76:	02 c0       	rjmp	.+4      	; 0xa7c <_Z19getLineTrackerYdatav+0x5e>
     a78:	88 0f       	add	r24, r24
     a7a:	99 1f       	adc	r25, r25
     a7c:	0a 94       	dec	r0
     a7e:	e2 f7       	brpl	.-8      	; 0xa78 <_Z19getLineTrackerYdatav+0x5a>
     a80:	82 2b       	or	r24, r18
     a82:	80 93 73 03 	sts	0x0373, r24	; 0x800373 <_ZL9linestate>
     a86:	03 c0       	rjmp	.+6      	; 0xa8e <_Z19getLineTrackerYdatav+0x70>
     a88:	f8 01       	movw	r30, r16
     a8a:	11 82       	std	Z+1, r1	; 0x01
     a8c:	10 82       	st	Z, r1
     a8e:	f7 01       	movw	r30, r14
     a90:	81 91       	ld	r24, Z+
     a92:	91 91       	ld	r25, Z+
     a94:	7f 01       	movw	r14, r30
     a96:	f8 01       	movw	r30, r16
     a98:	a1 90       	ld	r10, Z+
     a9a:	b1 90       	ld	r11, Z+
     a9c:	8f 01       	movw	r16, r30
     a9e:	8a 9d       	mul	r24, r10
     aa0:	b0 01       	movw	r22, r0
     aa2:	8b 9d       	mul	r24, r11
     aa4:	70 0d       	add	r23, r0
     aa6:	9a 9d       	mul	r25, r10
     aa8:	70 0d       	add	r23, r0
     aaa:	11 24       	eor	r1, r1
     aac:	07 2e       	mov	r0, r23
     aae:	00 0c       	add	r0, r0
     ab0:	88 0b       	sbc	r24, r24
     ab2:	99 0b       	sbc	r25, r25
     ab4:	0e 94 01 1e 	call	0x3c02	; 0x3c02 <__floatsisf>
     ab8:	20 91 6d 03 	lds	r18, 0x036D	; 0x80036d <_ZL8totalSum>
     abc:	30 91 6e 03 	lds	r19, 0x036E	; 0x80036e <_ZL8totalSum+0x1>
     ac0:	40 91 6f 03 	lds	r20, 0x036F	; 0x80036f <_ZL8totalSum+0x2>
     ac4:	50 91 70 03 	lds	r21, 0x0370	; 0x800370 <_ZL8totalSum+0x3>
     ac8:	0e 94 99 1c 	call	0x3932	; 0x3932 <__addsf3>
     acc:	2b 01       	movw	r4, r22
     ace:	3c 01       	movw	r6, r24
     ad0:	60 93 6d 03 	sts	0x036D, r22	; 0x80036d <_ZL8totalSum>
     ad4:	70 93 6e 03 	sts	0x036E, r23	; 0x80036e <_ZL8totalSum+0x1>
     ad8:	80 93 6f 03 	sts	0x036F, r24	; 0x80036f <_ZL8totalSum+0x2>
     adc:	90 93 70 03 	sts	0x0370, r25	; 0x800370 <_ZL8totalSum+0x3>
     ae0:	b5 01       	movw	r22, r10
     ae2:	bb 0c       	add	r11, r11
     ae4:	88 0b       	sbc	r24, r24
     ae6:	99 0b       	sbc	r25, r25
     ae8:	0e 94 01 1e 	call	0x3c02	; 0x3c02 <__floatsisf>
     aec:	20 91 69 03 	lds	r18, 0x0369	; 0x800369 <_ZL9totalLine>
     af0:	30 91 6a 03 	lds	r19, 0x036A	; 0x80036a <_ZL9totalLine+0x1>
     af4:	40 91 6b 03 	lds	r20, 0x036B	; 0x80036b <_ZL9totalLine+0x2>
     af8:	50 91 6c 03 	lds	r21, 0x036C	; 0x80036c <_ZL9totalLine+0x3>
     afc:	0e 94 99 1c 	call	0x3932	; 0x3932 <__addsf3>
     b00:	60 93 69 03 	sts	0x0369, r22	; 0x800369 <_ZL9totalLine>
     b04:	70 93 6a 03 	sts	0x036A, r23	; 0x80036a <_ZL9totalLine+0x1>
     b08:	80 93 6b 03 	sts	0x036B, r24	; 0x80036b <_ZL9totalLine+0x2>
     b0c:	90 93 6c 03 	sts	0x036C, r25	; 0x80036c <_ZL9totalLine+0x3>
     b10:	21 96       	adiw	r28, 0x01	; 1
     b12:	c8 30       	cpi	r28, 0x08	; 8
     b14:	d1 05       	cpc	r29, r1
     b16:	09 f0       	breq	.+2      	; 0xb1a <_Z19getLineTrackerYdatav+0xfc>
     b18:	9d cf       	rjmp	.-198    	; 0xa54 <_Z19getLineTrackerYdatav+0x36>
     b1a:	9b 01       	movw	r18, r22
     b1c:	ac 01       	movw	r20, r24
     b1e:	c3 01       	movw	r24, r6
     b20:	b2 01       	movw	r22, r4
     b22:	0e 94 66 1d 	call	0x3acc	; 0x3acc <__divsf3>
     b26:	0e 94 ce 1d 	call	0x3b9c	; 0x3b9c <__fixsfsi>
     b2a:	70 93 72 03 	sts	0x0372, r23	; 0x800372 <_ZL16linetracker_data+0x1>
     b2e:	60 93 71 03 	sts	0x0371, r22	; 0x800371 <_ZL16linetracker_data>
     b32:	10 92 6d 03 	sts	0x036D, r1	; 0x80036d <_ZL8totalSum>
     b36:	10 92 6e 03 	sts	0x036E, r1	; 0x80036e <_ZL8totalSum+0x1>
     b3a:	10 92 6f 03 	sts	0x036F, r1	; 0x80036f <_ZL8totalSum+0x2>
     b3e:	10 92 70 03 	sts	0x0370, r1	; 0x800370 <_ZL8totalSum+0x3>
     b42:	10 92 69 03 	sts	0x0369, r1	; 0x800369 <_ZL9totalLine>
     b46:	10 92 6a 03 	sts	0x036A, r1	; 0x80036a <_ZL9totalLine+0x1>
     b4a:	10 92 6b 03 	sts	0x036B, r1	; 0x80036b <_ZL9totalLine+0x2>
     b4e:	10 92 6c 03 	sts	0x036C, r1	; 0x80036c <_ZL9totalLine+0x3>
     b52:	cb 01       	movw	r24, r22
     b54:	df 91       	pop	r29
     b56:	cf 91       	pop	r28
     b58:	1f 91       	pop	r17
     b5a:	0f 91       	pop	r16
     b5c:	ff 90       	pop	r15
     b5e:	ef 90       	pop	r14
     b60:	df 90       	pop	r13
     b62:	cf 90       	pop	r12
     b64:	bf 90       	pop	r11
     b66:	af 90       	pop	r10
     b68:	7f 90       	pop	r7
     b6a:	6f 90       	pop	r6
     b6c:	5f 90       	pop	r5
     b6e:	4f 90       	pop	r4
     b70:	08 95       	ret

00000b72 <_Z46Compensate_DistanceY_When_Moving_Towards_Fencev>:
     b72:	83 e8       	ldi	r24, 0x83	; 131
     b74:	92 e0       	ldi	r25, 0x02	; 2
     b76:	22 db       	rcall	.-2492   	; 0x1bc <_ZN7encoder11getdistanceEv>
     b78:	2d ec       	ldi	r18, 0xCD	; 205
     b7a:	3c ec       	ldi	r19, 0xCC	; 204
     b7c:	4c e4       	ldi	r20, 0x4C	; 76
     b7e:	5f e3       	ldi	r21, 0x3F	; 63
     b80:	0e 94 1a 1f 	call	0x3e34	; 0x3e34 <__mulsf3>
     b84:	0e 94 ce 1d 	call	0x3b9c	; 0x3b9c <__fixsfsi>
     b88:	70 93 81 03 	sts	0x0381, r23	; 0x800381 <velocity_robot+0x3>
     b8c:	60 93 80 03 	sts	0x0380, r22	; 0x800380 <velocity_robot+0x2>
     b90:	08 95       	ret

00000b92 <_Z19calculateCompassPIDv>:
     b92:	2f 92       	push	r2
     b94:	3f 92       	push	r3
     b96:	4f 92       	push	r4
     b98:	5f 92       	push	r5
     b9a:	6f 92       	push	r6
     b9c:	7f 92       	push	r7
     b9e:	8f 92       	push	r8
     ba0:	9f 92       	push	r9
     ba2:	af 92       	push	r10
     ba4:	bf 92       	push	r11
     ba6:	cf 92       	push	r12
     ba8:	df 92       	push	r13
     baa:	ef 92       	push	r14
     bac:	ff 92       	push	r15
     bae:	0f 93       	push	r16
     bb0:	1f 93       	push	r17
     bb2:	cf 93       	push	r28
     bb4:	df 93       	push	r29
     bb6:	00 d0       	rcall	.+0      	; 0xbb8 <_Z19calculateCompassPIDv+0x26>
     bb8:	1f 92       	push	r1
     bba:	cd b7       	in	r28, 0x3d	; 61
     bbc:	de b7       	in	r29, 0x3e	; 62
     bbe:	80 91 02 02 	lds	r24, 0x0202	; 0x800202 <PidUpdateFlagCompass>
     bc2:	88 23       	and	r24, r24
     bc4:	09 f4       	brne	.+2      	; 0xbc8 <_Z19calculateCompassPIDv+0x36>
     bc6:	1a c1       	rjmp	.+564    	; 0xdfc <_Z19calculateCompassPIDv+0x26a>
     bc8:	80 91 3e 02 	lds	r24, 0x023E	; 0x80023e <compassPID>
     bcc:	88 23       	and	r24, r24
     bce:	09 f4       	brne	.+2      	; 0xbd2 <_Z19calculateCompassPIDv+0x40>
     bd0:	19 c1       	rjmp	.+562    	; 0xe04 <_Z19calculateCompassPIDv+0x272>
     bd2:	32 dd       	rcall	.-1436   	; 0x638 <_Z10getYawGY88v>
     bd4:	8c 01       	movw	r16, r24
     bd6:	e2 ef       	ldi	r30, 0xF2	; 242
     bd8:	f2 e0       	ldi	r31, 0x02	; 2
     bda:	91 83       	std	Z+1, r25	; 0x01
     bdc:	80 83       	st	Z, r24
     bde:	86 85       	ldd	r24, Z+14	; 0x0e
     be0:	97 85       	ldd	r25, Z+15	; 0x0f
     be2:	80 1b       	sub	r24, r16
     be4:	91 0b       	sbc	r25, r17
     be6:	85 3b       	cpi	r24, 0xB5	; 181
     be8:	91 05       	cpc	r25, r1
     bea:	3c f0       	brlt	.+14     	; 0xbfa <_Z19calculateCompassPIDv+0x68>
     bec:	88 56       	subi	r24, 0x68	; 104
     bee:	91 40       	sbci	r25, 0x01	; 1
     bf0:	90 93 f5 02 	sts	0x02F5, r25	; 0x8002f5 <compass+0x3>
     bf4:	80 93 f4 02 	sts	0x02F4, r24	; 0x8002f4 <compass+0x2>
     bf8:	0f c0       	rjmp	.+30     	; 0xc18 <_Z19calculateCompassPIDv+0x86>
     bfa:	8c 34       	cpi	r24, 0x4C	; 76
     bfc:	2f ef       	ldi	r18, 0xFF	; 255
     bfe:	92 07       	cpc	r25, r18
     c00:	2c f0       	brlt	.+10     	; 0xc0c <_Z19calculateCompassPIDv+0x7a>
     c02:	90 93 f5 02 	sts	0x02F5, r25	; 0x8002f5 <compass+0x3>
     c06:	80 93 f4 02 	sts	0x02F4, r24	; 0x8002f4 <compass+0x2>
     c0a:	06 c0       	rjmp	.+12     	; 0xc18 <_Z19calculateCompassPIDv+0x86>
     c0c:	88 59       	subi	r24, 0x98	; 152
     c0e:	9e 4f       	sbci	r25, 0xFE	; 254
     c10:	90 93 f5 02 	sts	0x02F5, r25	; 0x8002f5 <compass+0x3>
     c14:	80 93 f4 02 	sts	0x02F4, r24	; 0x8002f4 <compass+0x2>
     c18:	20 90 f4 02 	lds	r2, 0x02F4	; 0x8002f4 <compass+0x2>
     c1c:	30 90 f5 02 	lds	r3, 0x02F5	; 0x8002f5 <compass+0x3>
     c20:	b1 01       	movw	r22, r2
     c22:	03 2c       	mov	r0, r3
     c24:	00 0c       	add	r0, r0
     c26:	88 0b       	sbc	r24, r24
     c28:	99 0b       	sbc	r25, r25
     c2a:	0e 94 01 1e 	call	0x3c02	; 0x3c02 <__floatsisf>
     c2e:	4b 01       	movw	r8, r22
     c30:	5c 01       	movw	r10, r24
     c32:	20 91 0b 03 	lds	r18, 0x030B	; 0x80030b <compass+0x19>
     c36:	30 91 0c 03 	lds	r19, 0x030C	; 0x80030c <compass+0x1a>
     c3a:	40 91 0d 03 	lds	r20, 0x030D	; 0x80030d <compass+0x1b>
     c3e:	50 91 0e 03 	lds	r21, 0x030E	; 0x80030e <compass+0x1c>
     c42:	0e 94 1a 1f 	call	0x3e34	; 0x3e34 <__mulsf3>
     c46:	20 91 fc 02 	lds	r18, 0x02FC	; 0x8002fc <compass+0xa>
     c4a:	30 91 fd 02 	lds	r19, 0x02FD	; 0x8002fd <compass+0xb>
     c4e:	40 91 fe 02 	lds	r20, 0x02FE	; 0x8002fe <compass+0xc>
     c52:	50 91 ff 02 	lds	r21, 0x02FF	; 0x8002ff <compass+0xd>
     c56:	0e 94 99 1c 	call	0x3932	; 0x3932 <__addsf3>
     c5a:	6b 01       	movw	r12, r22
     c5c:	7c 01       	movw	r14, r24
     c5e:	60 93 fc 02 	sts	0x02FC, r22	; 0x8002fc <compass+0xa>
     c62:	70 93 fd 02 	sts	0x02FD, r23	; 0x8002fd <compass+0xb>
     c66:	80 93 fe 02 	sts	0x02FE, r24	; 0x8002fe <compass+0xc>
     c6a:	90 93 ff 02 	sts	0x02FF, r25	; 0x8002ff <compass+0xd>
     c6e:	60 91 03 03 	lds	r22, 0x0303	; 0x800303 <compass+0x11>
     c72:	70 91 04 03 	lds	r23, 0x0304	; 0x800304 <compass+0x12>
     c76:	07 2e       	mov	r0, r23
     c78:	00 0c       	add	r0, r0
     c7a:	88 0b       	sbc	r24, r24
     c7c:	99 0b       	sbc	r25, r25
     c7e:	0e 94 01 1e 	call	0x3c02	; 0x3c02 <__floatsisf>
     c82:	69 83       	std	Y+1, r22	; 0x01
     c84:	7a 83       	std	Y+2, r23	; 0x02
     c86:	8b 83       	std	Y+3, r24	; 0x03
     c88:	9c 83       	std	Y+4, r25	; 0x04
     c8a:	2d ec       	ldi	r18, 0xCD	; 205
     c8c:	3c ec       	ldi	r19, 0xCC	; 204
     c8e:	4c e4       	ldi	r20, 0x4C	; 76
     c90:	5e e3       	ldi	r21, 0x3E	; 62
     c92:	0e 94 1a 1f 	call	0x3e34	; 0x3e34 <__mulsf3>
     c96:	2b 01       	movw	r4, r22
     c98:	3c 01       	movw	r6, r24
     c9a:	c7 01       	movw	r24, r14
     c9c:	b6 01       	movw	r22, r12
     c9e:	0e 94 ce 1d 	call	0x3b9c	; 0x3b9c <__fixsfsi>
     ca2:	9b 01       	movw	r18, r22
     ca4:	77 23       	and	r23, r23
     ca6:	24 f4       	brge	.+8      	; 0xcb0 <_Z19calculateCompassPIDv+0x11e>
     ca8:	22 27       	eor	r18, r18
     caa:	33 27       	eor	r19, r19
     cac:	26 1b       	sub	r18, r22
     cae:	37 0b       	sbc	r19, r23
     cb0:	b9 01       	movw	r22, r18
     cb2:	33 0f       	add	r19, r19
     cb4:	88 0b       	sbc	r24, r24
     cb6:	99 0b       	sbc	r25, r25
     cb8:	0e 94 01 1e 	call	0x3c02	; 0x3c02 <__floatsisf>
     cbc:	a3 01       	movw	r20, r6
     cbe:	92 01       	movw	r18, r4
     cc0:	0e 94 0f 1f 	call	0x3e1e	; 0x3e1e <__gesf2>
     cc4:	18 16       	cp	r1, r24
     cc6:	24 f5       	brge	.+72     	; 0xd10 <_Z19calculateCompassPIDv+0x17e>
     cc8:	20 e0       	ldi	r18, 0x00	; 0
     cca:	30 e0       	ldi	r19, 0x00	; 0
     ccc:	a9 01       	movw	r20, r18
     cce:	c7 01       	movw	r24, r14
     cd0:	b6 01       	movw	r22, r12
     cd2:	0e 94 0f 1f 	call	0x3e1e	; 0x3e1e <__gesf2>
     cd6:	18 16       	cp	r1, r24
     cd8:	4c f4       	brge	.+18     	; 0xcec <_Z19calculateCompassPIDv+0x15a>
     cda:	40 92 fc 02 	sts	0x02FC, r4	; 0x8002fc <compass+0xa>
     cde:	50 92 fd 02 	sts	0x02FD, r5	; 0x8002fd <compass+0xb>
     ce2:	60 92 fe 02 	sts	0x02FE, r6	; 0x8002fe <compass+0xc>
     ce6:	70 92 ff 02 	sts	0x02FF, r7	; 0x8002ff <compass+0xd>
     cea:	12 c0       	rjmp	.+36     	; 0xd10 <_Z19calculateCompassPIDv+0x17e>
     cec:	2d ec       	ldi	r18, 0xCD	; 205
     cee:	3c ec       	ldi	r19, 0xCC	; 204
     cf0:	4c e4       	ldi	r20, 0x4C	; 76
     cf2:	5e eb       	ldi	r21, 0xBE	; 190
     cf4:	69 81       	ldd	r22, Y+1	; 0x01
     cf6:	7a 81       	ldd	r23, Y+2	; 0x02
     cf8:	8b 81       	ldd	r24, Y+3	; 0x03
     cfa:	9c 81       	ldd	r25, Y+4	; 0x04
     cfc:	0e 94 1a 1f 	call	0x3e34	; 0x3e34 <__mulsf3>
     d00:	60 93 fc 02 	sts	0x02FC, r22	; 0x8002fc <compass+0xa>
     d04:	70 93 fd 02 	sts	0x02FD, r23	; 0x8002fd <compass+0xb>
     d08:	80 93 fe 02 	sts	0x02FE, r24	; 0x8002fe <compass+0xc>
     d0c:	90 93 ff 02 	sts	0x02FF, r25	; 0x8002ff <compass+0xd>
     d10:	c1 01       	movw	r24, r2
     d12:	99 23       	and	r25, r25
     d14:	24 f4       	brge	.+8      	; 0xd1e <_Z19calculateCompassPIDv+0x18c>
     d16:	88 27       	eor	r24, r24
     d18:	99 27       	eor	r25, r25
     d1a:	82 19       	sub	r24, r2
     d1c:	93 09       	sbc	r25, r3
     d1e:	18 16       	cp	r1, r24
     d20:	19 06       	cpc	r1, r25
     d22:	e4 f5       	brge	.+120    	; 0xd9c <_Z19calculateCompassPIDv+0x20a>
     d24:	20 91 07 03 	lds	r18, 0x0307	; 0x800307 <compass+0x15>
     d28:	30 91 08 03 	lds	r19, 0x0308	; 0x800308 <compass+0x16>
     d2c:	40 91 09 03 	lds	r20, 0x0309	; 0x800309 <compass+0x17>
     d30:	50 91 0a 03 	lds	r21, 0x030A	; 0x80030a <compass+0x18>
     d34:	c5 01       	movw	r24, r10
     d36:	b4 01       	movw	r22, r8
     d38:	0e 94 1a 1f 	call	0x3e34	; 0x3e34 <__mulsf3>
     d3c:	6b 01       	movw	r12, r22
     d3e:	7c 01       	movw	r14, r24
     d40:	80 91 f6 02 	lds	r24, 0x02F6	; 0x8002f6 <compass+0x4>
     d44:	90 91 f7 02 	lds	r25, 0x02F7	; 0x8002f7 <compass+0x5>
     d48:	b8 01       	movw	r22, r16
     d4a:	68 1b       	sub	r22, r24
     d4c:	79 0b       	sbc	r23, r25
     d4e:	07 2e       	mov	r0, r23
     d50:	00 0c       	add	r0, r0
     d52:	88 0b       	sbc	r24, r24
     d54:	99 0b       	sbc	r25, r25
     d56:	0e 94 01 1e 	call	0x3c02	; 0x3c02 <__floatsisf>
     d5a:	20 91 0f 03 	lds	r18, 0x030F	; 0x80030f <compass+0x1d>
     d5e:	30 91 10 03 	lds	r19, 0x0310	; 0x800310 <compass+0x1e>
     d62:	40 91 11 03 	lds	r20, 0x0311	; 0x800311 <compass+0x1f>
     d66:	50 91 12 03 	lds	r21, 0x0312	; 0x800312 <compass+0x20>
     d6a:	0e 94 1a 1f 	call	0x3e34	; 0x3e34 <__mulsf3>
     d6e:	9b 01       	movw	r18, r22
     d70:	ac 01       	movw	r20, r24
     d72:	c7 01       	movw	r24, r14
     d74:	b6 01       	movw	r22, r12
     d76:	0e 94 98 1c 	call	0x3930	; 0x3930 <__subsf3>
     d7a:	20 91 fc 02 	lds	r18, 0x02FC	; 0x8002fc <compass+0xa>
     d7e:	30 91 fd 02 	lds	r19, 0x02FD	; 0x8002fd <compass+0xb>
     d82:	40 91 fe 02 	lds	r20, 0x02FE	; 0x8002fe <compass+0xc>
     d86:	50 91 ff 02 	lds	r21, 0x02FF	; 0x8002ff <compass+0xd>
     d8a:	0e 94 99 1c 	call	0x3932	; 0x3932 <__addsf3>
     d8e:	0e 94 ce 1d 	call	0x3b9c	; 0x3b9c <__fixsfsi>
     d92:	70 93 f9 02 	sts	0x02F9, r23	; 0x8002f9 <compass+0x7>
     d96:	60 93 f8 02 	sts	0x02F8, r22	; 0x8002f8 <compass+0x6>
     d9a:	08 c0       	rjmp	.+16     	; 0xdac <_Z19calculateCompassPIDv+0x21a>
     d9c:	e2 ef       	ldi	r30, 0xF2	; 242
     d9e:	f2 e0       	ldi	r31, 0x02	; 2
     da0:	12 86       	std	Z+10, r1	; 0x0a
     da2:	13 86       	std	Z+11, r1	; 0x0b
     da4:	14 86       	std	Z+12, r1	; 0x0c
     da6:	15 86       	std	Z+13, r1	; 0x0d
     da8:	17 82       	std	Z+7, r1	; 0x07
     daa:	16 82       	std	Z+6, r1	; 0x06
     dac:	e2 ef       	ldi	r30, 0xF2	; 242
     dae:	f2 e0       	ldi	r31, 0x02	; 2
     db0:	80 81       	ld	r24, Z
     db2:	91 81       	ldd	r25, Z+1	; 0x01
     db4:	95 83       	std	Z+5, r25	; 0x05
     db6:	84 83       	std	Z+4, r24	; 0x04
     db8:	86 81       	ldd	r24, Z+6	; 0x06
     dba:	97 81       	ldd	r25, Z+7	; 0x07
     dbc:	21 89       	ldd	r18, Z+17	; 0x11
     dbe:	32 89       	ldd	r19, Z+18	; 0x12
     dc0:	ac 01       	movw	r20, r24
     dc2:	99 23       	and	r25, r25
     dc4:	24 f4       	brge	.+8      	; 0xdce <_Z19calculateCompassPIDv+0x23c>
     dc6:	44 27       	eor	r20, r20
     dc8:	55 27       	eor	r21, r21
     dca:	48 1b       	sub	r20, r24
     dcc:	59 0b       	sbc	r21, r25
     dce:	24 17       	cp	r18, r20
     dd0:	35 07       	cpc	r19, r21
     dd2:	54 f4       	brge	.+20     	; 0xde8 <_Z19calculateCompassPIDv+0x256>
     dd4:	28 17       	cp	r18, r24
     dd6:	39 07       	cpc	r19, r25
     dd8:	1c f0       	brlt	.+6      	; 0xde0 <_Z19calculateCompassPIDv+0x24e>
     dda:	31 95       	neg	r19
     ddc:	21 95       	neg	r18
     dde:	31 09       	sbc	r19, r1
     de0:	30 93 f9 02 	sts	0x02F9, r19	; 0x8002f9 <compass+0x7>
     de4:	20 93 f8 02 	sts	0x02F8, r18	; 0x8002f8 <compass+0x6>
     de8:	80 91 f8 02 	lds	r24, 0x02F8	; 0x8002f8 <compass+0x6>
     dec:	90 91 f9 02 	lds	r25, 0x02F9	; 0x8002f9 <compass+0x7>
     df0:	90 93 83 03 	sts	0x0383, r25	; 0x800383 <velocity_robot+0x5>
     df4:	80 93 82 03 	sts	0x0382, r24	; 0x800382 <velocity_robot+0x4>
     df8:	10 92 02 02 	sts	0x0202, r1	; 0x800202 <PidUpdateFlagCompass>
     dfc:	80 91 3e 02 	lds	r24, 0x023E	; 0x80023e <compassPID>
     e00:	81 11       	cpse	r24, r1
     e02:	04 c0       	rjmp	.+8      	; 0xe0c <_Z19calculateCompassPIDv+0x27a>
     e04:	10 92 83 03 	sts	0x0383, r1	; 0x800383 <velocity_robot+0x5>
     e08:	10 92 82 03 	sts	0x0382, r1	; 0x800382 <velocity_robot+0x4>
     e0c:	0f 90       	pop	r0
     e0e:	0f 90       	pop	r0
     e10:	0f 90       	pop	r0
     e12:	0f 90       	pop	r0
     e14:	df 91       	pop	r29
     e16:	cf 91       	pop	r28
     e18:	1f 91       	pop	r17
     e1a:	0f 91       	pop	r16
     e1c:	ff 90       	pop	r15
     e1e:	ef 90       	pop	r14
     e20:	df 90       	pop	r13
     e22:	cf 90       	pop	r12
     e24:	bf 90       	pop	r11
     e26:	af 90       	pop	r10
     e28:	9f 90       	pop	r9
     e2a:	8f 90       	pop	r8
     e2c:	7f 90       	pop	r7
     e2e:	6f 90       	pop	r6
     e30:	5f 90       	pop	r5
     e32:	4f 90       	pop	r4
     e34:	3f 90       	pop	r3
     e36:	2f 90       	pop	r2
     e38:	08 95       	ret

00000e3a <_Z12calculatevelv>:
     e3a:	2f 92       	push	r2
     e3c:	3f 92       	push	r3
     e3e:	4f 92       	push	r4
     e40:	5f 92       	push	r5
     e42:	6f 92       	push	r6
     e44:	7f 92       	push	r7
     e46:	8f 92       	push	r8
     e48:	9f 92       	push	r9
     e4a:	af 92       	push	r10
     e4c:	bf 92       	push	r11
     e4e:	cf 92       	push	r12
     e50:	df 92       	push	r13
     e52:	ef 92       	push	r14
     e54:	ff 92       	push	r15
     e56:	0f 93       	push	r16
     e58:	1f 93       	push	r17
     e5a:	cf 93       	push	r28
     e5c:	df 93       	push	r29
     e5e:	00 d0       	rcall	.+0      	; 0xe60 <_Z12calculatevelv+0x26>
     e60:	1f 92       	push	r1
     e62:	cd b7       	in	r28, 0x3d	; 61
     e64:	de b7       	in	r29, 0x3e	; 62
     e66:	80 91 08 02 	lds	r24, 0x0208	; 0x800208 <inverseKinematicTrue>
     e6a:	88 23       	and	r24, r24
     e6c:	09 f4       	brne	.+2      	; 0xe70 <_Z12calculatevelv+0x36>
     e6e:	57 c0       	rjmp	.+174    	; 0xf1e <_Z12calculatevelv+0xe4>
     e70:	0f 2e       	mov	r0, r31
     e72:	f4 e8       	ldi	r31, 0x84	; 132
     e74:	cf 2e       	mov	r12, r31
     e76:	f3 e0       	ldi	r31, 0x03	; 3
     e78:	df 2e       	mov	r13, r31
     e7a:	f0 2d       	mov	r31, r0
     e7c:	0f 2e       	mov	r0, r31
     e7e:	fa e0       	ldi	r31, 0x0A	; 10
     e80:	4f 2e       	mov	r4, r31
     e82:	f2 e0       	ldi	r31, 0x02	; 2
     e84:	5f 2e       	mov	r5, r31
     e86:	f0 2d       	mov	r31, r0
     e88:	0f 2e       	mov	r0, r31
     e8a:	fc e8       	ldi	r31, 0x8C	; 140
     e8c:	2f 2e       	mov	r2, r31
     e8e:	f3 e0       	ldi	r31, 0x03	; 3
     e90:	3f 2e       	mov	r3, r31
     e92:	f0 2d       	mov	r31, r0
     e94:	0f 2e       	mov	r0, r31
     e96:	f4 e8       	ldi	r31, 0x84	; 132
     e98:	6f 2e       	mov	r6, r31
     e9a:	f3 e0       	ldi	r31, 0x03	; 3
     e9c:	7f 2e       	mov	r7, r31
     e9e:	f0 2d       	mov	r31, r0
     ea0:	da 82       	std	Y+2, r13	; 0x02
     ea2:	c9 82       	std	Y+1, r12	; 0x01
     ea4:	0e e7       	ldi	r16, 0x7E	; 126
     ea6:	13 e0       	ldi	r17, 0x03	; 3
     ea8:	72 01       	movw	r14, r4
     eaa:	1b 82       	std	Y+3, r1	; 0x03
     eac:	1c 82       	std	Y+4, r1	; 0x04
     eae:	d8 01       	movw	r26, r16
     eb0:	6d 91       	ld	r22, X+
     eb2:	7d 91       	ld	r23, X+
     eb4:	8d 01       	movw	r16, r26
     eb6:	f7 01       	movw	r30, r14
     eb8:	81 90       	ld	r8, Z+
     eba:	91 90       	ld	r9, Z+
     ebc:	a1 90       	ld	r10, Z+
     ebe:	b1 90       	ld	r11, Z+
     ec0:	7f 01       	movw	r14, r30
     ec2:	07 2e       	mov	r0, r23
     ec4:	00 0c       	add	r0, r0
     ec6:	88 0b       	sbc	r24, r24
     ec8:	99 0b       	sbc	r25, r25
     eca:	0e 94 01 1e 	call	0x3c02	; 0x3c02 <__floatsisf>
     ece:	a5 01       	movw	r20, r10
     ed0:	94 01       	movw	r18, r8
     ed2:	0e 94 1a 1f 	call	0x3e34	; 0x3e34 <__mulsf3>
     ed6:	4b 01       	movw	r8, r22
     ed8:	5c 01       	movw	r10, r24
     eda:	2b 81       	ldd	r18, Y+3	; 0x03
     edc:	3c 81       	ldd	r19, Y+4	; 0x04
     ede:	b9 01       	movw	r22, r18
     ee0:	33 0f       	add	r19, r19
     ee2:	88 0b       	sbc	r24, r24
     ee4:	99 0b       	sbc	r25, r25
     ee6:	0e 94 01 1e 	call	0x3c02	; 0x3c02 <__floatsisf>
     eea:	9b 01       	movw	r18, r22
     eec:	ac 01       	movw	r20, r24
     eee:	c5 01       	movw	r24, r10
     ef0:	b4 01       	movw	r22, r8
     ef2:	0e 94 99 1c 	call	0x3932	; 0x3932 <__addsf3>
     ef6:	0e 94 ce 1d 	call	0x3b9c	; 0x3b9c <__fixsfsi>
     efa:	7c 83       	std	Y+4, r23	; 0x04
     efc:	6b 83       	std	Y+3, r22	; 0x03
     efe:	06 15       	cp	r16, r6
     f00:	17 05       	cpc	r17, r7
     f02:	a9 f6       	brne	.-86     	; 0xeae <_Z12calculatevelv+0x74>
     f04:	a9 81       	ldd	r26, Y+1	; 0x01
     f06:	ba 81       	ldd	r27, Y+2	; 0x02
     f08:	6d 93       	st	X+, r22
     f0a:	7c 93       	st	X, r23
     f0c:	f2 e0       	ldi	r31, 0x02	; 2
     f0e:	cf 0e       	add	r12, r31
     f10:	d1 1c       	adc	r13, r1
     f12:	2c e0       	ldi	r18, 0x0C	; 12
     f14:	42 0e       	add	r4, r18
     f16:	51 1c       	adc	r5, r1
     f18:	c2 14       	cp	r12, r2
     f1a:	d3 04       	cpc	r13, r3
     f1c:	09 f6       	brne	.-126    	; 0xea0 <_Z12calculatevelv+0x66>
     f1e:	ec e8       	ldi	r30, 0x8C	; 140
     f20:	f3 e0       	ldi	r31, 0x03	; 3
     f22:	a4 e8       	ldi	r26, 0x84	; 132
     f24:	b3 e0       	ldi	r27, 0x03	; 3
     f26:	2d 91       	ld	r18, X+
     f28:	3c 91       	ld	r19, X
     f2a:	47 e1       	ldi	r20, 0x17	; 23
     f2c:	42 9f       	mul	r20, r18
     f2e:	c0 01       	movw	r24, r0
     f30:	43 9f       	mul	r20, r19
     f32:	90 0d       	add	r25, r0
     f34:	11 24       	eor	r1, r1
     f36:	29 ef       	ldi	r18, 0xF9	; 249
     f38:	30 e0       	ldi	r19, 0x00	; 0
     f3a:	b9 01       	movw	r22, r18
     f3c:	0e 94 ee 1f 	call	0x3fdc	; 0x3fdc <__divmodhi4>
     f40:	60 83       	st	Z, r22
     f42:	60 91 86 03 	lds	r22, 0x0386	; 0x800386 <velocity_motor+0x2>
     f46:	70 91 87 03 	lds	r23, 0x0387	; 0x800387 <velocity_motor+0x3>
     f4a:	46 9f       	mul	r20, r22
     f4c:	c0 01       	movw	r24, r0
     f4e:	47 9f       	mul	r20, r23
     f50:	90 0d       	add	r25, r0
     f52:	11 24       	eor	r1, r1
     f54:	b9 01       	movw	r22, r18
     f56:	0e 94 ee 1f 	call	0x3fdc	; 0x3fdc <__divmodhi4>
     f5a:	61 83       	std	Z+1, r22	; 0x01
     f5c:	60 91 88 03 	lds	r22, 0x0388	; 0x800388 <velocity_motor+0x4>
     f60:	70 91 89 03 	lds	r23, 0x0389	; 0x800389 <velocity_motor+0x5>
     f64:	46 9f       	mul	r20, r22
     f66:	c0 01       	movw	r24, r0
     f68:	47 9f       	mul	r20, r23
     f6a:	90 0d       	add	r25, r0
     f6c:	11 24       	eor	r1, r1
     f6e:	b9 01       	movw	r22, r18
     f70:	0e 94 ee 1f 	call	0x3fdc	; 0x3fdc <__divmodhi4>
     f74:	62 83       	std	Z+2, r22	; 0x02
     f76:	60 91 8a 03 	lds	r22, 0x038A	; 0x80038a <velocity_motor+0x6>
     f7a:	70 91 8b 03 	lds	r23, 0x038B	; 0x80038b <velocity_motor+0x7>
     f7e:	46 9f       	mul	r20, r22
     f80:	c0 01       	movw	r24, r0
     f82:	47 9f       	mul	r20, r23
     f84:	90 0d       	add	r25, r0
     f86:	11 24       	eor	r1, r1
     f88:	b9 01       	movw	r22, r18
     f8a:	0e 94 ee 1f 	call	0x3fdc	; 0x3fdc <__divmodhi4>
     f8e:	63 83       	std	Z+3, r22	; 0x03
     f90:	30 dd       	rcall	.-1440   	; 0x9f2 <_Z15sendDataToSlavev>
     f92:	0f 90       	pop	r0
     f94:	0f 90       	pop	r0
     f96:	0f 90       	pop	r0
     f98:	0f 90       	pop	r0
     f9a:	df 91       	pop	r29
     f9c:	cf 91       	pop	r28
     f9e:	1f 91       	pop	r17
     fa0:	0f 91       	pop	r16
     fa2:	ff 90       	pop	r15
     fa4:	ef 90       	pop	r14
     fa6:	df 90       	pop	r13
     fa8:	cf 90       	pop	r12
     faa:	bf 90       	pop	r11
     fac:	af 90       	pop	r10
     fae:	9f 90       	pop	r9
     fb0:	8f 90       	pop	r8
     fb2:	7f 90       	pop	r7
     fb4:	6f 90       	pop	r6
     fb6:	5f 90       	pop	r5
     fb8:	4f 90       	pop	r4
     fba:	3f 90       	pop	r3
     fbc:	2f 90       	pop	r2
     fbe:	08 95       	ret

00000fc0 <_Z24calculateLineTrackerYPidv>:
     fc0:	8f 92       	push	r8
     fc2:	9f 92       	push	r9
     fc4:	af 92       	push	r10
     fc6:	bf 92       	push	r11
     fc8:	cf 92       	push	r12
     fca:	df 92       	push	r13
     fcc:	ef 92       	push	r14
     fce:	ff 92       	push	r15
     fd0:	0f 93       	push	r16
     fd2:	1f 93       	push	r17
     fd4:	cf 93       	push	r28
     fd6:	df 93       	push	r29
     fd8:	80 91 23 03 	lds	r24, 0x0323	; 0x800323 <ltY+0x10>
     fdc:	88 23       	and	r24, r24
     fde:	51 f0       	breq	.+20     	; 0xff4 <_Z24calculateLineTrackerYPidv+0x34>
     fe0:	1e dd       	rcall	.-1476   	; 0xa1e <_Z19getLineTrackerYdatav>
     fe2:	89 2b       	or	r24, r25
     fe4:	39 f0       	breq	.+14     	; 0xff4 <_Z24calculateLineTrackerYPidv+0x34>
     fe6:	1b dd       	rcall	.-1482   	; 0xa1e <_Z19getLineTrackerYdatav>
     fe8:	e3 e1       	ldi	r30, 0x13	; 19
     fea:	f3 e0       	ldi	r31, 0x03	; 3
     fec:	95 83       	std	Z+5, r25	; 0x05
     fee:	84 83       	std	Z+4, r24	; 0x04
     ff0:	10 8a       	std	Z+16, r1	; 0x10
     ff2:	db c0       	rjmp	.+438    	; 0x11aa <_Z24calculateLineTrackerYPidv+0x1ea>
     ff4:	80 91 03 02 	lds	r24, 0x0203	; 0x800203 <PidUpdateFlagLinetracker>
     ff8:	88 23       	and	r24, r24
     ffa:	09 f4       	brne	.+2      	; 0xffe <_Z24calculateLineTrackerYPidv+0x3e>
     ffc:	d6 c0       	rjmp	.+428    	; 0x11aa <_Z24calculateLineTrackerYPidv+0x1ea>
     ffe:	80 91 3d 02 	lds	r24, 0x023D	; 0x80023d <linetrackerPID>
    1002:	88 23       	and	r24, r24
    1004:	09 f4       	brne	.+2      	; 0x1008 <_Z24calculateLineTrackerYPidv+0x48>
    1006:	d5 c0       	rjmp	.+426    	; 0x11b2 <_Z24calculateLineTrackerYPidv+0x1f2>
    1008:	0a dd       	rcall	.-1516   	; 0xa1e <_Z19getLineTrackerYdatav>
    100a:	ec 01       	movw	r28, r24
    100c:	90 93 14 03 	sts	0x0314, r25	; 0x800314 <ltY+0x1>
    1010:	80 93 13 03 	sts	0x0313, r24	; 0x800313 <ltY>
    1014:	89 2b       	or	r24, r25
    1016:	09 f4       	brne	.+2      	; 0x101a <_Z24calculateLineTrackerYPidv+0x5a>
    1018:	c6 c0       	rjmp	.+396    	; 0x11a6 <_Z24calculateLineTrackerYPidv+0x1e6>
    101a:	80 91 09 02 	lds	r24, 0x0209	; 0x800209 <lineMeet>
    101e:	88 23       	and	r24, r24
    1020:	09 f4       	brne	.+2      	; 0x1024 <_Z24calculateLineTrackerYPidv+0x64>
    1022:	c1 c0       	rjmp	.+386    	; 0x11a6 <_Z24calculateLineTrackerYPidv+0x1e6>
    1024:	e3 e1       	ldi	r30, 0x13	; 19
    1026:	f3 e0       	ldi	r31, 0x03	; 3
    1028:	66 85       	ldd	r22, Z+14	; 0x0e
    102a:	77 85       	ldd	r23, Z+15	; 0x0f
    102c:	6c 1b       	sub	r22, r28
    102e:	7d 0b       	sbc	r23, r29
    1030:	73 83       	std	Z+3, r23	; 0x03
    1032:	62 83       	std	Z+2, r22	; 0x02
    1034:	61 15       	cp	r22, r1
    1036:	71 05       	cpc	r23, r1
    1038:	31 f4       	brne	.+12     	; 0x1046 <_Z24calculateLineTrackerYPidv+0x86>
    103a:	12 86       	std	Z+10, r1	; 0x0a
    103c:	13 86       	std	Z+11, r1	; 0x0b
    103e:	14 86       	std	Z+12, r1	; 0x0c
    1040:	15 86       	std	Z+13, r1	; 0x0d
    1042:	d5 83       	std	Z+5, r29	; 0x05
    1044:	c4 83       	std	Z+4, r28	; 0x04
    1046:	07 2e       	mov	r0, r23
    1048:	00 0c       	add	r0, r0
    104a:	88 0b       	sbc	r24, r24
    104c:	99 0b       	sbc	r25, r25
    104e:	0e 94 01 1e 	call	0x3c02	; 0x3c02 <__floatsisf>
    1052:	4b 01       	movw	r8, r22
    1054:	5c 01       	movw	r10, r24
    1056:	03 e1       	ldi	r16, 0x13	; 19
    1058:	13 e0       	ldi	r17, 0x03	; 3
    105a:	f8 01       	movw	r30, r16
    105c:	21 8d       	ldd	r18, Z+25	; 0x19
    105e:	32 8d       	ldd	r19, Z+26	; 0x1a
    1060:	43 8d       	ldd	r20, Z+27	; 0x1b
    1062:	54 8d       	ldd	r21, Z+28	; 0x1c
    1064:	0e 94 1a 1f 	call	0x3e34	; 0x3e34 <__mulsf3>
    1068:	f8 01       	movw	r30, r16
    106a:	22 85       	ldd	r18, Z+10	; 0x0a
    106c:	33 85       	ldd	r19, Z+11	; 0x0b
    106e:	44 85       	ldd	r20, Z+12	; 0x0c
    1070:	55 85       	ldd	r21, Z+13	; 0x0d
    1072:	0e 94 99 1c 	call	0x3932	; 0x3932 <__addsf3>
    1076:	6b 01       	movw	r12, r22
    1078:	7c 01       	movw	r14, r24
    107a:	f8 01       	movw	r30, r16
    107c:	62 87       	std	Z+10, r22	; 0x0a
    107e:	73 87       	std	Z+11, r23	; 0x0b
    1080:	84 87       	std	Z+12, r24	; 0x0c
    1082:	95 87       	std	Z+13, r25	; 0x0d
    1084:	0e 94 ce 1d 	call	0x3b9c	; 0x3b9c <__fixsfsi>
    1088:	9b 01       	movw	r18, r22
    108a:	77 23       	and	r23, r23
    108c:	24 f4       	brge	.+8      	; 0x1096 <_Z24calculateLineTrackerYPidv+0xd6>
    108e:	22 27       	eor	r18, r18
    1090:	33 27       	eor	r19, r19
    1092:	26 1b       	sub	r18, r22
    1094:	37 0b       	sbc	r19, r23
    1096:	2b 30       	cpi	r18, 0x0B	; 11
    1098:	31 05       	cpc	r19, r1
    109a:	5c f1       	brlt	.+86     	; 0x10f2 <_Z24calculateLineTrackerYPidv+0x132>
    109c:	20 e0       	ldi	r18, 0x00	; 0
    109e:	30 e0       	ldi	r19, 0x00	; 0
    10a0:	a9 01       	movw	r20, r18
    10a2:	c7 01       	movw	r24, r14
    10a4:	b6 01       	movw	r22, r12
    10a6:	0e 94 0f 1f 	call	0x3e1e	; 0x3e1e <__gesf2>
    10aa:	18 16       	cp	r1, r24
    10ac:	6c f4       	brge	.+26     	; 0x10c8 <_Z24calculateLineTrackerYPidv+0x108>
    10ae:	80 e0       	ldi	r24, 0x00	; 0
    10b0:	90 e0       	ldi	r25, 0x00	; 0
    10b2:	a0 ea       	ldi	r26, 0xA0	; 160
    10b4:	b0 e4       	ldi	r27, 0x40	; 64
    10b6:	80 93 1d 03 	sts	0x031D, r24	; 0x80031d <ltY+0xa>
    10ba:	90 93 1e 03 	sts	0x031E, r25	; 0x80031e <ltY+0xb>
    10be:	a0 93 1f 03 	sts	0x031F, r26	; 0x80031f <ltY+0xc>
    10c2:	b0 93 20 03 	sts	0x0320, r27	; 0x800320 <ltY+0xd>
    10c6:	15 c0       	rjmp	.+42     	; 0x10f2 <_Z24calculateLineTrackerYPidv+0x132>
    10c8:	20 e0       	ldi	r18, 0x00	; 0
    10ca:	30 e0       	ldi	r19, 0x00	; 0
    10cc:	a9 01       	movw	r20, r18
    10ce:	c7 01       	movw	r24, r14
    10d0:	b6 01       	movw	r22, r12
    10d2:	0e 94 5f 1d 	call	0x3abe	; 0x3abe <__cmpsf2>
    10d6:	88 23       	and	r24, r24
    10d8:	64 f4       	brge	.+24     	; 0x10f2 <_Z24calculateLineTrackerYPidv+0x132>
    10da:	80 e0       	ldi	r24, 0x00	; 0
    10dc:	90 e0       	ldi	r25, 0x00	; 0
    10de:	a0 ea       	ldi	r26, 0xA0	; 160
    10e0:	b0 ec       	ldi	r27, 0xC0	; 192
    10e2:	80 93 1d 03 	sts	0x031D, r24	; 0x80031d <ltY+0xa>
    10e6:	90 93 1e 03 	sts	0x031E, r25	; 0x80031e <ltY+0xb>
    10ea:	a0 93 1f 03 	sts	0x031F, r26	; 0x80031f <ltY+0xc>
    10ee:	b0 93 20 03 	sts	0x0320, r27	; 0x800320 <ltY+0xd>
    10f2:	03 e1       	ldi	r16, 0x13	; 19
    10f4:	13 e0       	ldi	r17, 0x03	; 3
    10f6:	f8 01       	movw	r30, r16
    10f8:	25 89       	ldd	r18, Z+21	; 0x15
    10fa:	36 89       	ldd	r19, Z+22	; 0x16
    10fc:	47 89       	ldd	r20, Z+23	; 0x17
    10fe:	50 8d       	ldd	r21, Z+24	; 0x18
    1100:	c5 01       	movw	r24, r10
    1102:	b4 01       	movw	r22, r8
    1104:	0e 94 1a 1f 	call	0x3e34	; 0x3e34 <__mulsf3>
    1108:	f8 01       	movw	r30, r16
    110a:	22 85       	ldd	r18, Z+10	; 0x0a
    110c:	33 85       	ldd	r19, Z+11	; 0x0b
    110e:	44 85       	ldd	r20, Z+12	; 0x0c
    1110:	55 85       	ldd	r21, Z+13	; 0x0d
    1112:	0e 94 99 1c 	call	0x3932	; 0x3932 <__addsf3>
    1116:	6b 01       	movw	r12, r22
    1118:	7c 01       	movw	r14, r24
    111a:	f8 01       	movw	r30, r16
    111c:	84 81       	ldd	r24, Z+4	; 0x04
    111e:	95 81       	ldd	r25, Z+5	; 0x05
    1120:	be 01       	movw	r22, r28
    1122:	68 1b       	sub	r22, r24
    1124:	79 0b       	sbc	r23, r25
    1126:	07 2e       	mov	r0, r23
    1128:	00 0c       	add	r0, r0
    112a:	88 0b       	sbc	r24, r24
    112c:	99 0b       	sbc	r25, r25
    112e:	0e 94 01 1e 	call	0x3c02	; 0x3c02 <__floatsisf>
    1132:	f8 01       	movw	r30, r16
    1134:	25 8d       	ldd	r18, Z+29	; 0x1d
    1136:	36 8d       	ldd	r19, Z+30	; 0x1e
    1138:	47 8d       	ldd	r20, Z+31	; 0x1f
    113a:	50 a1       	ldd	r21, Z+32	; 0x20
    113c:	0e 94 1a 1f 	call	0x3e34	; 0x3e34 <__mulsf3>
    1140:	9b 01       	movw	r18, r22
    1142:	ac 01       	movw	r20, r24
    1144:	c7 01       	movw	r24, r14
    1146:	b6 01       	movw	r22, r12
    1148:	0e 94 98 1c 	call	0x3930	; 0x3930 <__subsf3>
    114c:	0e 94 ce 1d 	call	0x3b9c	; 0x3b9c <__fixsfsi>
    1150:	9b 01       	movw	r18, r22
    1152:	f8 01       	movw	r30, r16
    1154:	77 83       	std	Z+7, r23	; 0x07
    1156:	66 83       	std	Z+6, r22	; 0x06
    1158:	d5 83       	std	Z+5, r29	; 0x05
    115a:	c4 83       	std	Z+4, r28	; 0x04
    115c:	ab 01       	movw	r20, r22
    115e:	77 23       	and	r23, r23
    1160:	24 f4       	brge	.+8      	; 0x116a <_Z24calculateLineTrackerYPidv+0x1aa>
    1162:	44 27       	eor	r20, r20
    1164:	55 27       	eor	r21, r21
    1166:	46 1b       	sub	r20, r22
    1168:	57 0b       	sbc	r21, r23
    116a:	49 32       	cpi	r20, 0x29	; 41
    116c:	51 05       	cpc	r21, r1
    116e:	84 f0       	brlt	.+32     	; 0x1190 <_Z24calculateLineTrackerYPidv+0x1d0>
    1170:	12 16       	cp	r1, r18
    1172:	13 06       	cpc	r1, r19
    1174:	3c f4       	brge	.+14     	; 0x1184 <_Z24calculateLineTrackerYPidv+0x1c4>
    1176:	88 e2       	ldi	r24, 0x28	; 40
    1178:	90 e0       	ldi	r25, 0x00	; 0
    117a:	90 93 1a 03 	sts	0x031A, r25	; 0x80031a <ltY+0x7>
    117e:	80 93 19 03 	sts	0x0319, r24	; 0x800319 <ltY+0x6>
    1182:	06 c0       	rjmp	.+12     	; 0x1190 <_Z24calculateLineTrackerYPidv+0x1d0>
    1184:	88 ed       	ldi	r24, 0xD8	; 216
    1186:	9f ef       	ldi	r25, 0xFF	; 255
    1188:	90 93 1a 03 	sts	0x031A, r25	; 0x80031a <ltY+0x7>
    118c:	80 93 19 03 	sts	0x0319, r24	; 0x800319 <ltY+0x6>
    1190:	80 91 19 03 	lds	r24, 0x0319	; 0x800319 <ltY+0x6>
    1194:	90 91 1a 03 	lds	r25, 0x031A	; 0x80031a <ltY+0x7>
    1198:	91 95       	neg	r25
    119a:	81 95       	neg	r24
    119c:	91 09       	sbc	r25, r1
    119e:	90 93 7f 03 	sts	0x037F, r25	; 0x80037f <velocity_robot+0x1>
    11a2:	80 93 7e 03 	sts	0x037E, r24	; 0x80037e <velocity_robot>
    11a6:	10 92 03 02 	sts	0x0203, r1	; 0x800203 <PidUpdateFlagLinetracker>
    11aa:	80 91 3d 02 	lds	r24, 0x023D	; 0x80023d <linetrackerPID>
    11ae:	81 11       	cpse	r24, r1
    11b0:	04 c0       	rjmp	.+8      	; 0x11ba <_Z24calculateLineTrackerYPidv+0x1fa>
    11b2:	10 92 7f 03 	sts	0x037F, r1	; 0x80037f <velocity_robot+0x1>
    11b6:	10 92 7e 03 	sts	0x037E, r1	; 0x80037e <velocity_robot>
    11ba:	df 91       	pop	r29
    11bc:	cf 91       	pop	r28
    11be:	1f 91       	pop	r17
    11c0:	0f 91       	pop	r16
    11c2:	ff 90       	pop	r15
    11c4:	ef 90       	pop	r14
    11c6:	df 90       	pop	r13
    11c8:	cf 90       	pop	r12
    11ca:	bf 90       	pop	r11
    11cc:	af 90       	pop	r10
    11ce:	9f 90       	pop	r9
    11d0:	8f 90       	pop	r8
    11d2:	08 95       	ret

000011d4 <_Z13initializeAllv>:
    11d4:	0f 93       	push	r16
    11d6:	1f 93       	push	r17
    11d8:	cf 93       	push	r28
    11da:	df 93       	push	r29
    11dc:	e2 ef       	ldi	r30, 0xF2	; 242
    11de:	f2 e0       	ldi	r31, 0x02	; 2
    11e0:	80 e5       	ldi	r24, 0x50	; 80
    11e2:	90 e0       	ldi	r25, 0x00	; 0
    11e4:	92 8b       	std	Z+18, r25	; 0x12
    11e6:	81 8b       	std	Z+17, r24	; 0x11
    11e8:	14 8a       	std	Z+20, r1	; 0x14
    11ea:	13 8a       	std	Z+19, r1	; 0x13
    11ec:	a3 e1       	ldi	r26, 0x13	; 19
    11ee:	b3 e0       	ldi	r27, 0x03	; 3
    11f0:	8d e2       	ldi	r24, 0x2D	; 45
    11f2:	90 e0       	ldi	r25, 0x00	; 0
    11f4:	1f 96       	adiw	r26, 0x0f	; 15
    11f6:	9c 93       	st	X, r25
    11f8:	8e 93       	st	-X, r24
    11fa:	1e 97       	sbiw	r26, 0x0e	; 14
    11fc:	46 e6       	ldi	r20, 0x66	; 102
    11fe:	56 e6       	ldi	r21, 0x66	; 102
    1200:	66 e0       	ldi	r22, 0x06	; 6
    1202:	70 e4       	ldi	r23, 0x40	; 64
    1204:	45 8b       	std	Z+21, r20	; 0x15
    1206:	56 8b       	std	Z+22, r21	; 0x16
    1208:	67 8b       	std	Z+23, r22	; 0x17
    120a:	70 8f       	std	Z+24, r23	; 0x18
    120c:	11 8e       	std	Z+25, r1	; 0x19
    120e:	12 8e       	std	Z+26, r1	; 0x1a
    1210:	13 8e       	std	Z+27, r1	; 0x1b
    1212:	14 8e       	std	Z+28, r1	; 0x1c
    1214:	40 e0       	ldi	r20, 0x00	; 0
    1216:	50 e0       	ldi	r21, 0x00	; 0
    1218:	68 e4       	ldi	r22, 0x48	; 72
    121a:	71 e4       	ldi	r23, 0x41	; 65
    121c:	45 8f       	std	Z+29, r20	; 0x1d
    121e:	56 8f       	std	Z+30, r21	; 0x1e
    1220:	67 8f       	std	Z+31, r22	; 0x1f
    1222:	70 a3       	std	Z+32, r23	; 0x20
    1224:	4d ec       	ldi	r20, 0xCD	; 205
    1226:	5c ec       	ldi	r21, 0xCC	; 204
    1228:	6c e4       	ldi	r22, 0x4C	; 76
    122a:	7f e3       	ldi	r23, 0x3F	; 63
    122c:	55 96       	adiw	r26, 0x15	; 21
    122e:	4d 93       	st	X+, r20
    1230:	5d 93       	st	X+, r21
    1232:	6d 93       	st	X+, r22
    1234:	7c 93       	st	X, r23
    1236:	58 97       	sbiw	r26, 0x18	; 24
    1238:	59 96       	adiw	r26, 0x19	; 25
    123a:	1d 92       	st	X+, r1
    123c:	1d 92       	st	X+, r1
    123e:	1d 92       	st	X+, r1
    1240:	1c 92       	st	X, r1
    1242:	5c 97       	sbiw	r26, 0x1c	; 28
    1244:	40 e0       	ldi	r20, 0x00	; 0
    1246:	50 e0       	ldi	r21, 0x00	; 0
    1248:	60 ea       	ldi	r22, 0xA0	; 160
    124a:	71 e4       	ldi	r23, 0x41	; 65
    124c:	5d 96       	adiw	r26, 0x1d	; 29
    124e:	4d 93       	st	X+, r20
    1250:	5d 93       	st	X+, r21
    1252:	6d 93       	st	X+, r22
    1254:	7c 93       	st	X, r23
    1256:	90 97       	sbiw	r26, 0x20	; 32
    1258:	e1 ed       	ldi	r30, 0xD1	; 209
    125a:	f2 e0       	ldi	r31, 0x02	; 2
    125c:	4a e9       	ldi	r20, 0x9A	; 154
    125e:	59 e9       	ldi	r21, 0x99	; 153
    1260:	69 e1       	ldi	r22, 0x19	; 25
    1262:	7e e3       	ldi	r23, 0x3E	; 62
    1264:	45 8b       	std	Z+21, r20	; 0x15
    1266:	56 8b       	std	Z+22, r21	; 0x16
    1268:	67 8b       	std	Z+23, r22	; 0x17
    126a:	70 8f       	std	Z+24, r23	; 0x18
    126c:	11 8e       	std	Z+25, r1	; 0x19
    126e:	12 8e       	std	Z+26, r1	; 0x1a
    1270:	13 8e       	std	Z+27, r1	; 0x1b
    1272:	14 8e       	std	Z+28, r1	; 0x1c
    1274:	80 e0       	ldi	r24, 0x00	; 0
    1276:	90 e0       	ldi	r25, 0x00	; 0
    1278:	a0 ec       	ldi	r26, 0xC0	; 192
    127a:	bf e3       	ldi	r27, 0x3F	; 63
    127c:	85 8f       	std	Z+29, r24	; 0x1d
    127e:	96 8f       	std	Z+30, r25	; 0x1e
    1280:	a7 8f       	std	Z+31, r26	; 0x1f
    1282:	b0 a3       	std	Z+32, r27	; 0x20
    1284:	e0 eb       	ldi	r30, 0xB0	; 176
    1286:	f2 e0       	ldi	r31, 0x02	; 2
    1288:	45 8b       	std	Z+21, r20	; 0x15
    128a:	56 8b       	std	Z+22, r21	; 0x16
    128c:	67 8b       	std	Z+23, r22	; 0x17
    128e:	70 8f       	std	Z+24, r23	; 0x18
    1290:	11 8e       	std	Z+25, r1	; 0x19
    1292:	12 8e       	std	Z+26, r1	; 0x1a
    1294:	13 8e       	std	Z+27, r1	; 0x1b
    1296:	14 8e       	std	Z+28, r1	; 0x1c
    1298:	85 8f       	std	Z+29, r24	; 0x1d
    129a:	96 8f       	std	Z+30, r25	; 0x1e
    129c:	a7 8f       	std	Z+31, r26	; 0x1f
    129e:	b0 a3       	std	Z+32, r27	; 0x20
    12a0:	f8 d8       	rcall	.-3600   	; 0x492 <_Z8initGY88v>
    12a2:	72 d8       	rcall	.-3868   	; 0x388 <_Z6millisv>
    12a4:	60 93 94 03 	sts	0x0394, r22	; 0x800394 <startTime>
    12a8:	70 93 95 03 	sts	0x0395, r23	; 0x800395 <startTime+0x1>
    12ac:	80 93 96 03 	sts	0x0396, r24	; 0x800396 <startTime+0x2>
    12b0:	90 93 97 03 	sts	0x0397, r25	; 0x800397 <startTime+0x3>
    12b4:	c2 ef       	ldi	r28, 0xF2	; 242
    12b6:	d2 e0       	ldi	r29, 0x02	; 2
    12b8:	67 d8       	rcall	.-3890   	; 0x388 <_Z6millisv>
    12ba:	00 91 94 03 	lds	r16, 0x0394	; 0x800394 <startTime>
    12be:	10 91 95 03 	lds	r17, 0x0395	; 0x800395 <startTime+0x1>
    12c2:	20 91 96 03 	lds	r18, 0x0396	; 0x800396 <startTime+0x2>
    12c6:	30 91 97 03 	lds	r19, 0x0397	; 0x800397 <startTime+0x3>
    12ca:	dc 01       	movw	r26, r24
    12cc:	cb 01       	movw	r24, r22
    12ce:	80 1b       	sub	r24, r16
    12d0:	91 0b       	sbc	r25, r17
    12d2:	a2 0b       	sbc	r26, r18
    12d4:	b3 0b       	sbc	r27, r19
    12d6:	84 3f       	cpi	r24, 0xF4	; 244
    12d8:	91 40       	sbci	r25, 0x01	; 1
    12da:	a1 05       	cpc	r26, r1
    12dc:	b1 05       	cpc	r27, r1
    12de:	48 f4       	brcc	.+18     	; 0x12f2 <_Z13initializeAllv+0x11e>
    12e0:	ab d9       	rcall	.-3242   	; 0x638 <_Z10getYawGY88v>
    12e2:	90 93 79 03 	sts	0x0379, r25	; 0x800379 <initialCompassAngle+0x1>
    12e6:	80 93 78 03 	sts	0x0378, r24	; 0x800378 <initialCompassAngle>
    12ea:	18 8a       	std	Y+16, r1	; 0x10
    12ec:	9f 87       	std	Y+15, r25	; 0x0f
    12ee:	8e 87       	std	Y+14, r24	; 0x0e
    12f0:	e3 cf       	rjmp	.-58     	; 0x12b8 <_Z13initializeAllv+0xe4>
    12f2:	df 91       	pop	r29
    12f4:	cf 91       	pop	r28
    12f6:	1f 91       	pop	r17
    12f8:	0f 91       	pop	r16
    12fa:	08 95       	ret

000012fc <_Z4movxiii>:
    12fc:	2f 92       	push	r2
    12fe:	3f 92       	push	r3
    1300:	4f 92       	push	r4
    1302:	5f 92       	push	r5
    1304:	6f 92       	push	r6
    1306:	7f 92       	push	r7
    1308:	8f 92       	push	r8
    130a:	9f 92       	push	r9
    130c:	af 92       	push	r10
    130e:	bf 92       	push	r11
    1310:	cf 92       	push	r12
    1312:	df 92       	push	r13
    1314:	ef 92       	push	r14
    1316:	ff 92       	push	r15
    1318:	0f 93       	push	r16
    131a:	1f 93       	push	r17
    131c:	cf 93       	push	r28
    131e:	df 93       	push	r29
    1320:	1c 01       	movw	r2, r24
    1322:	7b 01       	movw	r14, r22
    1324:	8a 01       	movw	r16, r20
    1326:	81 e0       	ldi	r24, 0x01	; 1
    1328:	80 93 08 02 	sts	0x0208, r24	; 0x800208 <inverseKinematicTrue>
    132c:	8b e8       	ldi	r24, 0x8B	; 139
    132e:	92 e0       	ldi	r25, 0x02	; 2
    1330:	0e 94 de 00 	call	0x1bc	; 0x1bc <_ZN7encoder11getdistanceEv>
    1334:	0e 94 ce 1d 	call	0x3b9c	; 0x3b9c <__fixsfsi>
    1338:	ab 01       	movw	r20, r22
    133a:	77 23       	and	r23, r23
    133c:	24 f4       	brge	.+8      	; 0x1346 <_Z4movxiii+0x4a>
    133e:	44 27       	eor	r20, r20
    1340:	55 27       	eor	r21, r21
    1342:	46 1b       	sub	r20, r22
    1344:	57 0b       	sbc	r21, r23
    1346:	ea 01       	movw	r28, r20
    1348:	50 93 7d 03 	sts	0x037D, r21	; 0x80037d <distanceX+0x1>
    134c:	40 93 7c 03 	sts	0x037C, r20	; 0x80037c <distanceX>
    1350:	30 92 e0 02 	sts	0x02E0, r3	; 0x8002e0 <driveX+0xf>
    1354:	20 92 df 02 	sts	0x02DF, r2	; 0x8002df <driveX+0xe>
    1358:	20 91 01 02 	lds	r18, 0x0201	; 0x800201 <PidUpdateFlagDriveX>
    135c:	22 23       	and	r18, r18
    135e:	09 f4       	brne	.+2      	; 0x1362 <_Z4movxiii+0x66>
    1360:	4a c1       	rjmp	.+660    	; 0x15f6 <_Z4movxiii+0x2fa>
    1362:	10 92 75 03 	sts	0x0375, r1	; 0x800375 <movingyfront>
    1366:	10 92 74 03 	sts	0x0374, r1	; 0x800374 <movingyback>
    136a:	50 93 d2 02 	sts	0x02D2, r21	; 0x8002d2 <driveX+0x1>
    136e:	40 93 d1 02 	sts	0x02D1, r20	; 0x8002d1 <driveX>
    1372:	10 92 01 02 	sts	0x0201, r1	; 0x800201 <PidUpdateFlagDriveX>
    1376:	48 3c       	cpi	r20, 0xC8	; 200
    1378:	51 05       	cpc	r21, r1
    137a:	0c f4       	brge	.+2      	; 0x137e <_Z4movxiii+0x82>
    137c:	ea c0       	rjmp	.+468    	; 0x1552 <_Z4movxiii+0x256>
    137e:	24 1a       	sub	r2, r20
    1380:	35 0a       	sbc	r3, r21
    1382:	0f 2e       	mov	r0, r31
    1384:	f1 ed       	ldi	r31, 0xD1	; 209
    1386:	cf 2e       	mov	r12, r31
    1388:	f2 e0       	ldi	r31, 0x02	; 2
    138a:	df 2e       	mov	r13, r31
    138c:	f0 2d       	mov	r31, r0
    138e:	f6 01       	movw	r30, r12
    1390:	33 82       	std	Z+3, r3	; 0x03
    1392:	22 82       	std	Z+2, r2	; 0x02
    1394:	b1 01       	movw	r22, r2
    1396:	03 2c       	mov	r0, r3
    1398:	00 0c       	add	r0, r0
    139a:	88 0b       	sbc	r24, r24
    139c:	99 0b       	sbc	r25, r25
    139e:	0e 94 01 1e 	call	0x3c02	; 0x3c02 <__floatsisf>
    13a2:	2b 01       	movw	r4, r22
    13a4:	3c 01       	movw	r6, r24
    13a6:	f6 01       	movw	r30, r12
    13a8:	21 8d       	ldd	r18, Z+25	; 0x19
    13aa:	32 8d       	ldd	r19, Z+26	; 0x1a
    13ac:	43 8d       	ldd	r20, Z+27	; 0x1b
    13ae:	54 8d       	ldd	r21, Z+28	; 0x1c
    13b0:	0e 94 1a 1f 	call	0x3e34	; 0x3e34 <__mulsf3>
    13b4:	f6 01       	movw	r30, r12
    13b6:	22 85       	ldd	r18, Z+10	; 0x0a
    13b8:	33 85       	ldd	r19, Z+11	; 0x0b
    13ba:	44 85       	ldd	r20, Z+12	; 0x0c
    13bc:	55 85       	ldd	r21, Z+13	; 0x0d
    13be:	0e 94 99 1c 	call	0x3932	; 0x3932 <__addsf3>
    13c2:	4b 01       	movw	r8, r22
    13c4:	5c 01       	movw	r10, r24
    13c6:	f6 01       	movw	r30, r12
    13c8:	62 87       	std	Z+10, r22	; 0x0a
    13ca:	73 87       	std	Z+11, r23	; 0x0b
    13cc:	84 87       	std	Z+12, r24	; 0x0c
    13ce:	95 87       	std	Z+13, r25	; 0x0d
    13d0:	80 89       	ldd	r24, Z+16	; 0x10
    13d2:	88 23       	and	r24, r24
    13d4:	19 f0       	breq	.+6      	; 0x13dc <_Z4movxiii+0xe0>
    13d6:	d5 83       	std	Z+5, r29	; 0x05
    13d8:	c4 83       	std	Z+4, r28	; 0x04
    13da:	10 8a       	std	Z+16, r1	; 0x10
    13dc:	c5 01       	movw	r24, r10
    13de:	b4 01       	movw	r22, r8
    13e0:	0e 94 ce 1d 	call	0x3b9c	; 0x3b9c <__fixsfsi>
    13e4:	9b 01       	movw	r18, r22
    13e6:	77 23       	and	r23, r23
    13e8:	24 f4       	brge	.+8      	; 0x13f2 <_Z4movxiii+0xf6>
    13ea:	22 27       	eor	r18, r18
    13ec:	33 27       	eor	r19, r19
    13ee:	26 1b       	sub	r18, r22
    13f0:	37 0b       	sbc	r19, r23
    13f2:	2b 30       	cpi	r18, 0x0B	; 11
    13f4:	31 05       	cpc	r19, r1
    13f6:	5c f1       	brlt	.+86     	; 0x144e <_Z4movxiii+0x152>
    13f8:	20 e0       	ldi	r18, 0x00	; 0
    13fa:	30 e0       	ldi	r19, 0x00	; 0
    13fc:	a9 01       	movw	r20, r18
    13fe:	c5 01       	movw	r24, r10
    1400:	b4 01       	movw	r22, r8
    1402:	0e 94 0f 1f 	call	0x3e1e	; 0x3e1e <__gesf2>
    1406:	18 16       	cp	r1, r24
    1408:	6c f4       	brge	.+26     	; 0x1424 <_Z4movxiii+0x128>
    140a:	80 e0       	ldi	r24, 0x00	; 0
    140c:	90 e0       	ldi	r25, 0x00	; 0
    140e:	a0 e2       	ldi	r26, 0x20	; 32
    1410:	b1 e4       	ldi	r27, 0x41	; 65
    1412:	80 93 db 02 	sts	0x02DB, r24	; 0x8002db <driveX+0xa>
    1416:	90 93 dc 02 	sts	0x02DC, r25	; 0x8002dc <driveX+0xb>
    141a:	a0 93 dd 02 	sts	0x02DD, r26	; 0x8002dd <driveX+0xc>
    141e:	b0 93 de 02 	sts	0x02DE, r27	; 0x8002de <driveX+0xd>
    1422:	15 c0       	rjmp	.+42     	; 0x144e <_Z4movxiii+0x152>
    1424:	20 e0       	ldi	r18, 0x00	; 0
    1426:	30 e0       	ldi	r19, 0x00	; 0
    1428:	a9 01       	movw	r20, r18
    142a:	c5 01       	movw	r24, r10
    142c:	b4 01       	movw	r22, r8
    142e:	0e 94 5f 1d 	call	0x3abe	; 0x3abe <__cmpsf2>
    1432:	88 23       	and	r24, r24
    1434:	64 f4       	brge	.+24     	; 0x144e <_Z4movxiii+0x152>
    1436:	80 e0       	ldi	r24, 0x00	; 0
    1438:	90 e0       	ldi	r25, 0x00	; 0
    143a:	a0 e2       	ldi	r26, 0x20	; 32
    143c:	b1 ec       	ldi	r27, 0xC1	; 193
    143e:	80 93 db 02 	sts	0x02DB, r24	; 0x8002db <driveX+0xa>
    1442:	90 93 dc 02 	sts	0x02DC, r25	; 0x8002dc <driveX+0xb>
    1446:	a0 93 dd 02 	sts	0x02DD, r26	; 0x8002dd <driveX+0xc>
    144a:	b0 93 de 02 	sts	0x02DE, r27	; 0x8002de <driveX+0xd>
    144e:	12 14       	cp	r1, r2
    1450:	13 04       	cpc	r1, r3
    1452:	bc f5       	brge	.+110    	; 0x14c2 <_Z4movxiii+0x1c6>
    1454:	0f 2e       	mov	r0, r31
    1456:	f1 ed       	ldi	r31, 0xD1	; 209
    1458:	cf 2e       	mov	r12, r31
    145a:	f2 e0       	ldi	r31, 0x02	; 2
    145c:	df 2e       	mov	r13, r31
    145e:	f0 2d       	mov	r31, r0
    1460:	f6 01       	movw	r30, r12
    1462:	25 89       	ldd	r18, Z+21	; 0x15
    1464:	36 89       	ldd	r19, Z+22	; 0x16
    1466:	47 89       	ldd	r20, Z+23	; 0x17
    1468:	50 8d       	ldd	r21, Z+24	; 0x18
    146a:	c3 01       	movw	r24, r6
    146c:	b2 01       	movw	r22, r4
    146e:	0e 94 1a 1f 	call	0x3e34	; 0x3e34 <__mulsf3>
    1472:	f6 01       	movw	r30, r12
    1474:	22 85       	ldd	r18, Z+10	; 0x0a
    1476:	33 85       	ldd	r19, Z+11	; 0x0b
    1478:	44 85       	ldd	r20, Z+12	; 0x0c
    147a:	55 85       	ldd	r21, Z+13	; 0x0d
    147c:	0e 94 99 1c 	call	0x3932	; 0x3932 <__addsf3>
    1480:	4b 01       	movw	r8, r22
    1482:	5c 01       	movw	r10, r24
    1484:	f6 01       	movw	r30, r12
    1486:	84 81       	ldd	r24, Z+4	; 0x04
    1488:	95 81       	ldd	r25, Z+5	; 0x05
    148a:	be 01       	movw	r22, r28
    148c:	68 1b       	sub	r22, r24
    148e:	79 0b       	sbc	r23, r25
    1490:	07 2e       	mov	r0, r23
    1492:	00 0c       	add	r0, r0
    1494:	88 0b       	sbc	r24, r24
    1496:	99 0b       	sbc	r25, r25
    1498:	0e 94 01 1e 	call	0x3c02	; 0x3c02 <__floatsisf>
    149c:	f6 01       	movw	r30, r12
    149e:	25 8d       	ldd	r18, Z+29	; 0x1d
    14a0:	36 8d       	ldd	r19, Z+30	; 0x1e
    14a2:	47 8d       	ldd	r20, Z+31	; 0x1f
    14a4:	50 a1       	ldd	r21, Z+32	; 0x20
    14a6:	0e 94 1a 1f 	call	0x3e34	; 0x3e34 <__mulsf3>
    14aa:	9b 01       	movw	r18, r22
    14ac:	ac 01       	movw	r20, r24
    14ae:	c5 01       	movw	r24, r10
    14b0:	b4 01       	movw	r22, r8
    14b2:	0e 94 98 1c 	call	0x3930	; 0x3930 <__subsf3>
    14b6:	0e 94 ce 1d 	call	0x3b9c	; 0x3b9c <__fixsfsi>
    14ba:	f6 01       	movw	r30, r12
    14bc:	77 83       	std	Z+7, r23	; 0x07
    14be:	66 83       	std	Z+6, r22	; 0x06
    14c0:	04 c0       	rjmp	.+8      	; 0x14ca <_Z4movxiii+0x1ce>
    14c2:	10 92 d8 02 	sts	0x02D8, r1	; 0x8002d8 <driveX+0x7>
    14c6:	10 92 d7 02 	sts	0x02D7, r1	; 0x8002d7 <driveX+0x6>
    14ca:	e1 ed       	ldi	r30, 0xD1	; 209
    14cc:	f2 e0       	ldi	r31, 0x02	; 2
    14ce:	d5 83       	std	Z+5, r29	; 0x05
    14d0:	c4 83       	std	Z+4, r28	; 0x04
    14d2:	86 81       	ldd	r24, Z+6	; 0x06
    14d4:	97 81       	ldd	r25, Z+7	; 0x07
    14d6:	9c 01       	movw	r18, r24
    14d8:	99 23       	and	r25, r25
    14da:	24 f4       	brge	.+8      	; 0x14e4 <_Z4movxiii+0x1e8>
    14dc:	22 27       	eor	r18, r18
    14de:	33 27       	eor	r19, r19
    14e0:	28 1b       	sub	r18, r24
    14e2:	39 0b       	sbc	r19, r25
    14e4:	02 17       	cp	r16, r18
    14e6:	13 07       	cpc	r17, r19
    14e8:	7c f4       	brge	.+30     	; 0x1508 <_Z4movxiii+0x20c>
    14ea:	18 16       	cp	r1, r24
    14ec:	19 06       	cpc	r1, r25
    14ee:	2c f4       	brge	.+10     	; 0x14fa <_Z4movxiii+0x1fe>
    14f0:	10 93 d8 02 	sts	0x02D8, r17	; 0x8002d8 <driveX+0x7>
    14f4:	00 93 d7 02 	sts	0x02D7, r16	; 0x8002d7 <driveX+0x6>
    14f8:	07 c0       	rjmp	.+14     	; 0x1508 <_Z4movxiii+0x20c>
    14fa:	11 95       	neg	r17
    14fc:	01 95       	neg	r16
    14fe:	11 09       	sbc	r17, r1
    1500:	10 93 d8 02 	sts	0x02D8, r17	; 0x8002d8 <driveX+0x7>
    1504:	00 93 d7 02 	sts	0x02D7, r16	; 0x8002d7 <driveX+0x6>
    1508:	80 91 d7 02 	lds	r24, 0x02D7	; 0x8002d7 <driveX+0x6>
    150c:	90 91 d8 02 	lds	r25, 0x02D8	; 0x8002d8 <driveX+0x7>
    1510:	43 96       	adiw	r24, 0x13	; 19
    1512:	87 97       	sbiw	r24, 0x27	; 39
    1514:	a8 f4       	brcc	.+42     	; 0x1540 <_Z4movxiii+0x244>
    1516:	80 91 77 03 	lds	r24, 0x0377	; 0x800377 <movingxfront>
    151a:	88 23       	and	r24, r24
    151c:	39 f0       	breq	.+14     	; 0x152c <_Z4movxiii+0x230>
    151e:	84 e1       	ldi	r24, 0x14	; 20
    1520:	90 e0       	ldi	r25, 0x00	; 0
    1522:	90 93 d8 02 	sts	0x02D8, r25	; 0x8002d8 <driveX+0x7>
    1526:	80 93 d7 02 	sts	0x02D7, r24	; 0x8002d7 <driveX+0x6>
    152a:	0a c0       	rjmp	.+20     	; 0x1540 <_Z4movxiii+0x244>
    152c:	80 91 76 03 	lds	r24, 0x0376	; 0x800376 <movingxback>
    1530:	88 23       	and	r24, r24
    1532:	31 f0       	breq	.+12     	; 0x1540 <_Z4movxiii+0x244>
    1534:	8c ee       	ldi	r24, 0xEC	; 236
    1536:	9f ef       	ldi	r25, 0xFF	; 255
    1538:	90 93 d8 02 	sts	0x02D8, r25	; 0x8002d8 <driveX+0x7>
    153c:	80 93 d7 02 	sts	0x02D7, r24	; 0x8002d7 <driveX+0x6>
    1540:	80 91 d7 02 	lds	r24, 0x02D7	; 0x8002d7 <driveX+0x6>
    1544:	90 91 d8 02 	lds	r25, 0x02D8	; 0x8002d8 <driveX+0x7>
    1548:	90 93 7f 03 	sts	0x037F, r25	; 0x80037f <velocity_robot+0x1>
    154c:	80 93 7e 03 	sts	0x037E, r24	; 0x80037e <velocity_robot>
    1550:	29 c0       	rjmp	.+82     	; 0x15a4 <_Z4movxiii+0x2a8>
    1552:	b8 01       	movw	r22, r16
    1554:	6c 53       	subi	r22, 0x3C	; 60
    1556:	71 09       	sbc	r23, r1
    1558:	07 2e       	mov	r0, r23
    155a:	00 0c       	add	r0, r0
    155c:	88 0b       	sbc	r24, r24
    155e:	99 0b       	sbc	r25, r25
    1560:	0e 94 01 1e 	call	0x3c02	; 0x3c02 <__floatsisf>
    1564:	20 e0       	ldi	r18, 0x00	; 0
    1566:	30 e0       	ldi	r19, 0x00	; 0
    1568:	48 e4       	ldi	r20, 0x48	; 72
    156a:	53 e4       	ldi	r21, 0x43	; 67
    156c:	0e 94 66 1d 	call	0x3acc	; 0x3acc <__divsf3>
    1570:	4b 01       	movw	r8, r22
    1572:	5c 01       	movw	r10, r24
    1574:	be 01       	movw	r22, r28
    1576:	dd 0f       	add	r29, r29
    1578:	88 0b       	sbc	r24, r24
    157a:	99 0b       	sbc	r25, r25
    157c:	0e 94 01 1e 	call	0x3c02	; 0x3c02 <__floatsisf>
    1580:	9b 01       	movw	r18, r22
    1582:	ac 01       	movw	r20, r24
    1584:	c5 01       	movw	r24, r10
    1586:	b4 01       	movw	r22, r8
    1588:	0e 94 1a 1f 	call	0x3e34	; 0x3e34 <__mulsf3>
    158c:	20 e0       	ldi	r18, 0x00	; 0
    158e:	30 e0       	ldi	r19, 0x00	; 0
    1590:	40 e7       	ldi	r20, 0x70	; 112
    1592:	52 e4       	ldi	r21, 0x42	; 66
    1594:	0e 94 99 1c 	call	0x3932	; 0x3932 <__addsf3>
    1598:	0e 94 ce 1d 	call	0x3b9c	; 0x3b9c <__fixsfsi>
    159c:	70 93 7f 03 	sts	0x037F, r23	; 0x80037f <velocity_robot+0x1>
    15a0:	60 93 7e 03 	sts	0x037E, r22	; 0x80037e <velocity_robot>
    15a4:	f2 e0       	ldi	r31, 0x02	; 2
    15a6:	ef 16       	cp	r14, r31
    15a8:	f1 04       	cpc	r15, r1
    15aa:	51 f4       	brne	.+20     	; 0x15c0 <_Z4movxiii+0x2c4>
    15ac:	81 e0       	ldi	r24, 0x01	; 1
    15ae:	80 93 77 03 	sts	0x0377, r24	; 0x800377 <movingxfront>
    15b2:	10 92 76 03 	sts	0x0376, r1	; 0x800376 <movingxback>
    15b6:	10 92 74 03 	sts	0x0374, r1	; 0x800374 <movingyback>
    15ba:	10 92 75 03 	sts	0x0375, r1	; 0x800375 <movingyfront>
    15be:	1b c0       	rjmp	.+54     	; 0x15f6 <_Z4movxiii+0x2fa>
    15c0:	83 e0       	ldi	r24, 0x03	; 3
    15c2:	e8 16       	cp	r14, r24
    15c4:	f1 04       	cpc	r15, r1
    15c6:	b9 f4       	brne	.+46     	; 0x15f6 <_Z4movxiii+0x2fa>
    15c8:	ee e7       	ldi	r30, 0x7E	; 126
    15ca:	f3 e0       	ldi	r31, 0x03	; 3
    15cc:	80 81       	ld	r24, Z
    15ce:	91 81       	ldd	r25, Z+1	; 0x01
    15d0:	99 23       	and	r25, r25
    15d2:	1c f4       	brge	.+6      	; 0x15da <_Z4movxiii+0x2de>
    15d4:	91 95       	neg	r25
    15d6:	81 95       	neg	r24
    15d8:	91 09       	sbc	r25, r1
    15da:	91 95       	neg	r25
    15dc:	81 95       	neg	r24
    15de:	91 09       	sbc	r25, r1
    15e0:	91 83       	std	Z+1, r25	; 0x01
    15e2:	80 83       	st	Z, r24
    15e4:	10 92 77 03 	sts	0x0377, r1	; 0x800377 <movingxfront>
    15e8:	81 e0       	ldi	r24, 0x01	; 1
    15ea:	80 93 76 03 	sts	0x0376, r24	; 0x800376 <movingxback>
    15ee:	10 92 75 03 	sts	0x0375, r1	; 0x800375 <movingyfront>
    15f2:	10 92 74 03 	sts	0x0374, r1	; 0x800374 <movingyback>
    15f6:	10 92 81 03 	sts	0x0381, r1	; 0x800381 <velocity_robot+0x3>
    15fa:	10 92 80 03 	sts	0x0380, r1	; 0x800380 <velocity_robot+0x2>
    15fe:	c9 da       	rcall	.-2670   	; 0xb92 <_Z19calculateCompassPIDv>
    1600:	df 91       	pop	r29
    1602:	cf 91       	pop	r28
    1604:	1f 91       	pop	r17
    1606:	0f 91       	pop	r16
    1608:	ff 90       	pop	r15
    160a:	ef 90       	pop	r14
    160c:	df 90       	pop	r13
    160e:	cf 90       	pop	r12
    1610:	bf 90       	pop	r11
    1612:	af 90       	pop	r10
    1614:	9f 90       	pop	r9
    1616:	8f 90       	pop	r8
    1618:	7f 90       	pop	r7
    161a:	6f 90       	pop	r6
    161c:	5f 90       	pop	r5
    161e:	4f 90       	pop	r4
    1620:	3f 90       	pop	r3
    1622:	2f 90       	pop	r2
    1624:	08 95       	ret

00001626 <_Z21Goto_Fence_And_Detectv>:
    1626:	0f 93       	push	r16
    1628:	1f 93       	push	r17
    162a:	10 92 75 03 	sts	0x0375, r1	; 0x800375 <movingyfront>
    162e:	79 9b       	sbis	0x0f, 1	; 15
    1630:	35 c0       	rjmp	.+106    	; 0x169c <_Z21Goto_Fence_And_Detectv+0x76>
    1632:	7a 9b       	sbis	0x0f, 2	; 15
    1634:	36 c0       	rjmp	.+108    	; 0x16a2 <_Z21Goto_Fence_And_Detectv+0x7c>
    1636:	32 c0       	rjmp	.+100    	; 0x169c <_Z21Goto_Fence_And_Detectv+0x76>
    1638:	79 9b       	sbis	0x0f, 1	; 15
    163a:	4f c0       	rjmp	.+158    	; 0x16da <_Z21Goto_Fence_And_Detectv+0xb4>
    163c:	6a c0       	rjmp	.+212    	; 0x1712 <_Z21Goto_Fence_And_Detectv+0xec>
    163e:	79 99       	sbic	0x0f, 1	; 15
    1640:	6b c0       	rjmp	.+214    	; 0x1718 <_Z21Goto_Fence_And_Detectv+0xf2>
    1642:	7a 99       	sbic	0x0f, 2	; 15
    1644:	29 c0       	rjmp	.+82     	; 0x1698 <_Z21Goto_Fence_And_Detectv+0x72>
    1646:	79 9b       	sbis	0x0f, 1	; 15
    1648:	7d c0       	rjmp	.+250    	; 0x1744 <_Z21Goto_Fence_And_Detectv+0x11e>
    164a:	80 e0       	ldi	r24, 0x00	; 0
    164c:	91 c0       	rjmp	.+290    	; 0x1770 <_Z21Goto_Fence_And_Detectv+0x14a>
    164e:	0e 94 c4 01 	call	0x388	; 0x388 <_Z6millisv>
    1652:	60 93 90 03 	sts	0x0390, r22	; 0x800390 <time_of_limit_switches_pressed>
    1656:	70 93 91 03 	sts	0x0391, r23	; 0x800391 <time_of_limit_switches_pressed+0x1>
    165a:	80 93 92 03 	sts	0x0392, r24	; 0x800392 <time_of_limit_switches_pressed+0x2>
    165e:	90 93 93 03 	sts	0x0393, r25	; 0x800393 <time_of_limit_switches_pressed+0x3>
    1662:	10 92 3a 02 	sts	0x023A, r1	; 0x80023a <first_data_time_of_limit_switches_pressed>
    1666:	0e 94 c4 01 	call	0x388	; 0x388 <_Z6millisv>
    166a:	00 91 90 03 	lds	r16, 0x0390	; 0x800390 <time_of_limit_switches_pressed>
    166e:	10 91 91 03 	lds	r17, 0x0391	; 0x800391 <time_of_limit_switches_pressed+0x1>
    1672:	20 91 92 03 	lds	r18, 0x0392	; 0x800392 <time_of_limit_switches_pressed+0x2>
    1676:	30 91 93 03 	lds	r19, 0x0393	; 0x800393 <time_of_limit_switches_pressed+0x3>
    167a:	ab 01       	movw	r20, r22
    167c:	bc 01       	movw	r22, r24
    167e:	40 1b       	sub	r20, r16
    1680:	51 0b       	sbc	r21, r17
    1682:	62 0b       	sbc	r22, r18
    1684:	73 0b       	sbc	r23, r19
    1686:	81 e0       	ldi	r24, 0x01	; 1
    1688:	45 36       	cpi	r20, 0x65	; 101
    168a:	51 05       	cpc	r21, r1
    168c:	61 05       	cpc	r22, r1
    168e:	71 05       	cpc	r23, r1
    1690:	08 f0       	brcs	.+2      	; 0x1694 <_Z21Goto_Fence_And_Detectv+0x6e>
    1692:	6e c0       	rjmp	.+220    	; 0x1770 <_Z21Goto_Fence_And_Detectv+0x14a>
    1694:	80 e0       	ldi	r24, 0x00	; 0
    1696:	6c c0       	rjmp	.+216    	; 0x1770 <_Z21Goto_Fence_And_Detectv+0x14a>
    1698:	80 e0       	ldi	r24, 0x00	; 0
    169a:	6a c0       	rjmp	.+212    	; 0x1770 <_Z21Goto_Fence_And_Detectv+0x14a>
    169c:	7a 99       	sbic	0x0f, 2	; 15
    169e:	cc cf       	rjmp	.-104    	; 0x1638 <_Z21Goto_Fence_And_Detectv+0x12>
    16a0:	38 c0       	rjmp	.+112    	; 0x1712 <_Z21Goto_Fence_And_Detectv+0xec>
    16a2:	10 92 08 02 	sts	0x0208, r1	; 0x800208 <inverseKinematicTrue>
    16a6:	e4 e8       	ldi	r30, 0x84	; 132
    16a8:	f3 e0       	ldi	r31, 0x03	; 3
    16aa:	8e e1       	ldi	r24, 0x1E	; 30
    16ac:	90 e0       	ldi	r25, 0x00	; 0
    16ae:	91 83       	std	Z+1, r25	; 0x01
    16b0:	80 83       	st	Z, r24
    16b2:	13 82       	std	Z+3, r1	; 0x03
    16b4:	12 82       	std	Z+2, r1	; 0x02
    16b6:	15 82       	std	Z+5, r1	; 0x05
    16b8:	14 82       	std	Z+4, r1	; 0x04
    16ba:	8c ee       	ldi	r24, 0xEC	; 236
    16bc:	9f ef       	ldi	r25, 0xFF	; 255
    16be:	97 83       	std	Z+7, r25	; 0x07
    16c0:	86 83       	std	Z+6, r24	; 0x06
    16c2:	10 92 90 03 	sts	0x0390, r1	; 0x800390 <time_of_limit_switches_pressed>
    16c6:	10 92 91 03 	sts	0x0391, r1	; 0x800391 <time_of_limit_switches_pressed+0x1>
    16ca:	10 92 92 03 	sts	0x0392, r1	; 0x800392 <time_of_limit_switches_pressed+0x2>
    16ce:	10 92 93 03 	sts	0x0393, r1	; 0x800393 <time_of_limit_switches_pressed+0x3>
    16d2:	81 e0       	ldi	r24, 0x01	; 1
    16d4:	80 93 3a 02 	sts	0x023A, r24	; 0x80023a <first_data_time_of_limit_switches_pressed>
    16d8:	b4 cf       	rjmp	.-152    	; 0x1642 <_Z21Goto_Fence_And_Detectv+0x1c>
    16da:	10 92 08 02 	sts	0x0208, r1	; 0x800208 <inverseKinematicTrue>
    16de:	e4 e8       	ldi	r30, 0x84	; 132
    16e0:	f3 e0       	ldi	r31, 0x03	; 3
    16e2:	84 e1       	ldi	r24, 0x14	; 20
    16e4:	90 e0       	ldi	r25, 0x00	; 0
    16e6:	91 83       	std	Z+1, r25	; 0x01
    16e8:	80 83       	st	Z, r24
    16ea:	13 82       	std	Z+3, r1	; 0x03
    16ec:	12 82       	std	Z+2, r1	; 0x02
    16ee:	15 82       	std	Z+5, r1	; 0x05
    16f0:	14 82       	std	Z+4, r1	; 0x04
    16f2:	82 ee       	ldi	r24, 0xE2	; 226
    16f4:	9f ef       	ldi	r25, 0xFF	; 255
    16f6:	97 83       	std	Z+7, r25	; 0x07
    16f8:	86 83       	std	Z+6, r24	; 0x06
    16fa:	10 92 90 03 	sts	0x0390, r1	; 0x800390 <time_of_limit_switches_pressed>
    16fe:	10 92 91 03 	sts	0x0391, r1	; 0x800391 <time_of_limit_switches_pressed+0x1>
    1702:	10 92 92 03 	sts	0x0392, r1	; 0x800392 <time_of_limit_switches_pressed+0x2>
    1706:	10 92 93 03 	sts	0x0393, r1	; 0x800393 <time_of_limit_switches_pressed+0x3>
    170a:	81 e0       	ldi	r24, 0x01	; 1
    170c:	80 93 3a 02 	sts	0x023A, r24	; 0x80023a <first_data_time_of_limit_switches_pressed>
    1710:	98 cf       	rjmp	.-208    	; 0x1642 <_Z21Goto_Fence_And_Detectv+0x1c>
    1712:	7a 99       	sbic	0x0f, 2	; 15
    1714:	94 cf       	rjmp	.-216    	; 0x163e <_Z21Goto_Fence_And_Detectv+0x18>
    1716:	95 cf       	rjmp	.-214    	; 0x1642 <_Z21Goto_Fence_And_Detectv+0x1c>
    1718:	11 e0       	ldi	r17, 0x01	; 1
    171a:	10 93 08 02 	sts	0x0208, r17	; 0x800208 <inverseKinematicTrue>
    171e:	40 e5       	ldi	r20, 0x50	; 80
    1720:	50 e0       	ldi	r21, 0x00	; 0
    1722:	63 e0       	ldi	r22, 0x03	; 3
    1724:	70 e0       	ldi	r23, 0x00	; 0
    1726:	84 ef       	ldi	r24, 0xF4	; 244
    1728:	91 e0       	ldi	r25, 0x01	; 1
    172a:	e8 dd       	rcall	.-1072   	; 0x12fc <_Z4movxiii>
    172c:	22 da       	rcall	.-3004   	; 0xb72 <_Z46Compensate_DistanceY_When_Moving_Towards_Fencev>
    172e:	10 92 90 03 	sts	0x0390, r1	; 0x800390 <time_of_limit_switches_pressed>
    1732:	10 92 91 03 	sts	0x0391, r1	; 0x800391 <time_of_limit_switches_pressed+0x1>
    1736:	10 92 92 03 	sts	0x0392, r1	; 0x800392 <time_of_limit_switches_pressed+0x2>
    173a:	10 92 93 03 	sts	0x0393, r1	; 0x800393 <time_of_limit_switches_pressed+0x3>
    173e:	10 93 3a 02 	sts	0x023A, r17	; 0x80023a <first_data_time_of_limit_switches_pressed>
    1742:	7f cf       	rjmp	.-258    	; 0x1642 <_Z21Goto_Fence_And_Detectv+0x1c>
    1744:	10 92 08 02 	sts	0x0208, r1	; 0x800208 <inverseKinematicTrue>
    1748:	e4 e8       	ldi	r30, 0x84	; 132
    174a:	f3 e0       	ldi	r31, 0x03	; 3
    174c:	8a e0       	ldi	r24, 0x0A	; 10
    174e:	90 e0       	ldi	r25, 0x00	; 0
    1750:	91 83       	std	Z+1, r25	; 0x01
    1752:	80 83       	st	Z, r24
    1754:	13 82       	std	Z+3, r1	; 0x03
    1756:	12 82       	std	Z+2, r1	; 0x02
    1758:	15 82       	std	Z+5, r1	; 0x05
    175a:	14 82       	std	Z+4, r1	; 0x04
    175c:	86 ef       	ldi	r24, 0xF6	; 246
    175e:	9f ef       	ldi	r25, 0xFF	; 255
    1760:	97 83       	std	Z+7, r25	; 0x07
    1762:	86 83       	std	Z+6, r24	; 0x06
    1764:	80 91 3a 02 	lds	r24, 0x023A	; 0x80023a <first_data_time_of_limit_switches_pressed>
    1768:	88 23       	and	r24, r24
    176a:	09 f4       	brne	.+2      	; 0x176e <_Z21Goto_Fence_And_Detectv+0x148>
    176c:	7c cf       	rjmp	.-264    	; 0x1666 <_Z21Goto_Fence_And_Detectv+0x40>
    176e:	6f cf       	rjmp	.-290    	; 0x164e <_Z21Goto_Fence_And_Detectv+0x28>
    1770:	1f 91       	pop	r17
    1772:	0f 91       	pop	r16
    1774:	08 95       	ret

00001776 <_Z4movyiii>:
    1776:	2f 92       	push	r2
    1778:	3f 92       	push	r3
    177a:	4f 92       	push	r4
    177c:	5f 92       	push	r5
    177e:	6f 92       	push	r6
    1780:	7f 92       	push	r7
    1782:	8f 92       	push	r8
    1784:	9f 92       	push	r9
    1786:	af 92       	push	r10
    1788:	bf 92       	push	r11
    178a:	cf 92       	push	r12
    178c:	df 92       	push	r13
    178e:	ef 92       	push	r14
    1790:	ff 92       	push	r15
    1792:	0f 93       	push	r16
    1794:	1f 93       	push	r17
    1796:	cf 93       	push	r28
    1798:	df 93       	push	r29
    179a:	1c 01       	movw	r2, r24
    179c:	7b 01       	movw	r14, r22
    179e:	6a 01       	movw	r12, r20
    17a0:	81 e0       	ldi	r24, 0x01	; 1
    17a2:	80 93 08 02 	sts	0x0208, r24	; 0x800208 <inverseKinematicTrue>
    17a6:	83 e8       	ldi	r24, 0x83	; 131
    17a8:	92 e0       	ldi	r25, 0x02	; 2
    17aa:	0e 94 de 00 	call	0x1bc	; 0x1bc <_ZN7encoder11getdistanceEv>
    17ae:	0e 94 ce 1d 	call	0x3b9c	; 0x3b9c <__fixsfsi>
    17b2:	9b 01       	movw	r18, r22
    17b4:	77 23       	and	r23, r23
    17b6:	24 f4       	brge	.+8      	; 0x17c0 <_Z4movyiii+0x4a>
    17b8:	22 27       	eor	r18, r18
    17ba:	33 27       	eor	r19, r19
    17bc:	26 1b       	sub	r18, r22
    17be:	37 0b       	sbc	r19, r23
    17c0:	e9 01       	movw	r28, r18
    17c2:	30 93 7b 03 	sts	0x037B, r19	; 0x80037b <distanceY+0x1>
    17c6:	20 93 7a 03 	sts	0x037A, r18	; 0x80037a <distanceY>
    17ca:	30 92 bf 02 	sts	0x02BF, r3	; 0x8002bf <driveY+0xf>
    17ce:	20 92 be 02 	sts	0x02BE, r2	; 0x8002be <driveY+0xe>
    17d2:	80 91 00 02 	lds	r24, 0x0200	; 0x800200 <PidUpdateFlagDriveY>
    17d6:	88 23       	and	r24, r24
    17d8:	09 f4       	brne	.+2      	; 0x17dc <_Z4movyiii+0x66>
    17da:	3c c1       	rjmp	.+632    	; 0x1a54 <_Z4movyiii+0x2de>
    17dc:	10 92 00 02 	sts	0x0200, r1	; 0x800200 <PidUpdateFlagDriveY>
    17e0:	28 3c       	cpi	r18, 0xC8	; 200
    17e2:	31 05       	cpc	r19, r1
    17e4:	0c f4       	brge	.+2      	; 0x17e8 <_Z4movyiii+0x72>
    17e6:	f5 c0       	rjmp	.+490    	; 0x19d2 <_Z4movyiii+0x25c>
    17e8:	00 eb       	ldi	r16, 0xB0	; 176
    17ea:	12 e0       	ldi	r17, 0x02	; 2
    17ec:	f8 01       	movw	r30, r16
    17ee:	31 83       	std	Z+1, r19	; 0x01
    17f0:	20 83       	st	Z, r18
    17f2:	22 1a       	sub	r2, r18
    17f4:	33 0a       	sbc	r3, r19
    17f6:	33 82       	std	Z+3, r3	; 0x03
    17f8:	22 82       	std	Z+2, r2	; 0x02
    17fa:	b1 01       	movw	r22, r2
    17fc:	03 2c       	mov	r0, r3
    17fe:	00 0c       	add	r0, r0
    1800:	88 0b       	sbc	r24, r24
    1802:	99 0b       	sbc	r25, r25
    1804:	0e 94 01 1e 	call	0x3c02	; 0x3c02 <__floatsisf>
    1808:	2b 01       	movw	r4, r22
    180a:	3c 01       	movw	r6, r24
    180c:	f8 01       	movw	r30, r16
    180e:	21 8d       	ldd	r18, Z+25	; 0x19
    1810:	32 8d       	ldd	r19, Z+26	; 0x1a
    1812:	43 8d       	ldd	r20, Z+27	; 0x1b
    1814:	54 8d       	ldd	r21, Z+28	; 0x1c
    1816:	0e 94 1a 1f 	call	0x3e34	; 0x3e34 <__mulsf3>
    181a:	f8 01       	movw	r30, r16
    181c:	22 85       	ldd	r18, Z+10	; 0x0a
    181e:	33 85       	ldd	r19, Z+11	; 0x0b
    1820:	44 85       	ldd	r20, Z+12	; 0x0c
    1822:	55 85       	ldd	r21, Z+13	; 0x0d
    1824:	0e 94 99 1c 	call	0x3932	; 0x3932 <__addsf3>
    1828:	4b 01       	movw	r8, r22
    182a:	5c 01       	movw	r10, r24
    182c:	f8 01       	movw	r30, r16
    182e:	62 87       	std	Z+10, r22	; 0x0a
    1830:	73 87       	std	Z+11, r23	; 0x0b
    1832:	84 87       	std	Z+12, r24	; 0x0c
    1834:	95 87       	std	Z+13, r25	; 0x0d
    1836:	80 89       	ldd	r24, Z+16	; 0x10
    1838:	88 23       	and	r24, r24
    183a:	19 f0       	breq	.+6      	; 0x1842 <_Z4movyiii+0xcc>
    183c:	d5 83       	std	Z+5, r29	; 0x05
    183e:	c4 83       	std	Z+4, r28	; 0x04
    1840:	10 8a       	std	Z+16, r1	; 0x10
    1842:	c5 01       	movw	r24, r10
    1844:	b4 01       	movw	r22, r8
    1846:	0e 94 ce 1d 	call	0x3b9c	; 0x3b9c <__fixsfsi>
    184a:	9b 01       	movw	r18, r22
    184c:	77 23       	and	r23, r23
    184e:	24 f4       	brge	.+8      	; 0x1858 <_Z4movyiii+0xe2>
    1850:	22 27       	eor	r18, r18
    1852:	33 27       	eor	r19, r19
    1854:	26 1b       	sub	r18, r22
    1856:	37 0b       	sbc	r19, r23
    1858:	2b 30       	cpi	r18, 0x0B	; 11
    185a:	31 05       	cpc	r19, r1
    185c:	5c f1       	brlt	.+86     	; 0x18b4 <_Z4movyiii+0x13e>
    185e:	20 e0       	ldi	r18, 0x00	; 0
    1860:	30 e0       	ldi	r19, 0x00	; 0
    1862:	a9 01       	movw	r20, r18
    1864:	c5 01       	movw	r24, r10
    1866:	b4 01       	movw	r22, r8
    1868:	0e 94 0f 1f 	call	0x3e1e	; 0x3e1e <__gesf2>
    186c:	18 16       	cp	r1, r24
    186e:	6c f4       	brge	.+26     	; 0x188a <_Z4movyiii+0x114>
    1870:	80 e0       	ldi	r24, 0x00	; 0
    1872:	90 e0       	ldi	r25, 0x00	; 0
    1874:	a0 e2       	ldi	r26, 0x20	; 32
    1876:	b1 e4       	ldi	r27, 0x41	; 65
    1878:	80 93 ba 02 	sts	0x02BA, r24	; 0x8002ba <driveY+0xa>
    187c:	90 93 bb 02 	sts	0x02BB, r25	; 0x8002bb <driveY+0xb>
    1880:	a0 93 bc 02 	sts	0x02BC, r26	; 0x8002bc <driveY+0xc>
    1884:	b0 93 bd 02 	sts	0x02BD, r27	; 0x8002bd <driveY+0xd>
    1888:	15 c0       	rjmp	.+42     	; 0x18b4 <_Z4movyiii+0x13e>
    188a:	20 e0       	ldi	r18, 0x00	; 0
    188c:	30 e0       	ldi	r19, 0x00	; 0
    188e:	a9 01       	movw	r20, r18
    1890:	c5 01       	movw	r24, r10
    1892:	b4 01       	movw	r22, r8
    1894:	0e 94 5f 1d 	call	0x3abe	; 0x3abe <__cmpsf2>
    1898:	88 23       	and	r24, r24
    189a:	64 f4       	brge	.+24     	; 0x18b4 <_Z4movyiii+0x13e>
    189c:	80 e0       	ldi	r24, 0x00	; 0
    189e:	90 e0       	ldi	r25, 0x00	; 0
    18a0:	a0 e2       	ldi	r26, 0x20	; 32
    18a2:	b1 ec       	ldi	r27, 0xC1	; 193
    18a4:	80 93 ba 02 	sts	0x02BA, r24	; 0x8002ba <driveY+0xa>
    18a8:	90 93 bb 02 	sts	0x02BB, r25	; 0x8002bb <driveY+0xb>
    18ac:	a0 93 bc 02 	sts	0x02BC, r26	; 0x8002bc <driveY+0xc>
    18b0:	b0 93 bd 02 	sts	0x02BD, r27	; 0x8002bd <driveY+0xd>
    18b4:	12 14       	cp	r1, r2
    18b6:	13 04       	cpc	r1, r3
    18b8:	9c f5       	brge	.+102    	; 0x1920 <_Z4movyiii+0x1aa>
    18ba:	00 eb       	ldi	r16, 0xB0	; 176
    18bc:	12 e0       	ldi	r17, 0x02	; 2
    18be:	f8 01       	movw	r30, r16
    18c0:	25 89       	ldd	r18, Z+21	; 0x15
    18c2:	36 89       	ldd	r19, Z+22	; 0x16
    18c4:	47 89       	ldd	r20, Z+23	; 0x17
    18c6:	50 8d       	ldd	r21, Z+24	; 0x18
    18c8:	c3 01       	movw	r24, r6
    18ca:	b2 01       	movw	r22, r4
    18cc:	0e 94 1a 1f 	call	0x3e34	; 0x3e34 <__mulsf3>
    18d0:	f8 01       	movw	r30, r16
    18d2:	22 85       	ldd	r18, Z+10	; 0x0a
    18d4:	33 85       	ldd	r19, Z+11	; 0x0b
    18d6:	44 85       	ldd	r20, Z+12	; 0x0c
    18d8:	55 85       	ldd	r21, Z+13	; 0x0d
    18da:	0e 94 99 1c 	call	0x3932	; 0x3932 <__addsf3>
    18de:	4b 01       	movw	r8, r22
    18e0:	5c 01       	movw	r10, r24
    18e2:	f8 01       	movw	r30, r16
    18e4:	84 81       	ldd	r24, Z+4	; 0x04
    18e6:	95 81       	ldd	r25, Z+5	; 0x05
    18e8:	be 01       	movw	r22, r28
    18ea:	68 1b       	sub	r22, r24
    18ec:	79 0b       	sbc	r23, r25
    18ee:	07 2e       	mov	r0, r23
    18f0:	00 0c       	add	r0, r0
    18f2:	88 0b       	sbc	r24, r24
    18f4:	99 0b       	sbc	r25, r25
    18f6:	0e 94 01 1e 	call	0x3c02	; 0x3c02 <__floatsisf>
    18fa:	f8 01       	movw	r30, r16
    18fc:	25 8d       	ldd	r18, Z+29	; 0x1d
    18fe:	36 8d       	ldd	r19, Z+30	; 0x1e
    1900:	47 8d       	ldd	r20, Z+31	; 0x1f
    1902:	50 a1       	ldd	r21, Z+32	; 0x20
    1904:	0e 94 1a 1f 	call	0x3e34	; 0x3e34 <__mulsf3>
    1908:	9b 01       	movw	r18, r22
    190a:	ac 01       	movw	r20, r24
    190c:	c5 01       	movw	r24, r10
    190e:	b4 01       	movw	r22, r8
    1910:	0e 94 98 1c 	call	0x3930	; 0x3930 <__subsf3>
    1914:	0e 94 ce 1d 	call	0x3b9c	; 0x3b9c <__fixsfsi>
    1918:	f8 01       	movw	r30, r16
    191a:	77 83       	std	Z+7, r23	; 0x07
    191c:	66 83       	std	Z+6, r22	; 0x06
    191e:	04 c0       	rjmp	.+8      	; 0x1928 <_Z4movyiii+0x1b2>
    1920:	10 92 b7 02 	sts	0x02B7, r1	; 0x8002b7 <driveY+0x7>
    1924:	10 92 b6 02 	sts	0x02B6, r1	; 0x8002b6 <driveY+0x6>
    1928:	e0 eb       	ldi	r30, 0xB0	; 176
    192a:	f2 e0       	ldi	r31, 0x02	; 2
    192c:	d5 83       	std	Z+5, r29	; 0x05
    192e:	c4 83       	std	Z+4, r28	; 0x04
    1930:	86 81       	ldd	r24, Z+6	; 0x06
    1932:	97 81       	ldd	r25, Z+7	; 0x07
    1934:	9c 01       	movw	r18, r24
    1936:	99 23       	and	r25, r25
    1938:	24 f4       	brge	.+8      	; 0x1942 <_Z4movyiii+0x1cc>
    193a:	22 27       	eor	r18, r18
    193c:	33 27       	eor	r19, r19
    193e:	28 1b       	sub	r18, r24
    1940:	39 0b       	sbc	r19, r25
    1942:	2c 15       	cp	r18, r12
    1944:	3d 05       	cpc	r19, r13
    1946:	24 f1       	brlt	.+72     	; 0x1990 <_Z4movyiii+0x21a>
    1948:	80 91 75 03 	lds	r24, 0x0375	; 0x800375 <movingyfront>
    194c:	88 23       	and	r24, r24
    194e:	61 f0       	breq	.+24     	; 0x1968 <_Z4movyiii+0x1f2>
    1950:	d0 92 b7 02 	sts	0x02B7, r13	; 0x8002b7 <driveY+0x7>
    1954:	c0 92 b6 02 	sts	0x02B6, r12	; 0x8002b6 <driveY+0x6>
    1958:	f3 e1       	ldi	r31, 0x13	; 19
    195a:	cf 0e       	add	r12, r31
    195c:	d1 1c       	adc	r13, r1
    195e:	87 e2       	ldi	r24, 0x27	; 39
    1960:	c8 16       	cp	r12, r24
    1962:	d1 04       	cpc	r13, r1
    1964:	68 f5       	brcc	.+90     	; 0x19c0 <_Z4movyiii+0x24a>
    1966:	1b c0       	rjmp	.+54     	; 0x199e <_Z4movyiii+0x228>
    1968:	80 91 74 03 	lds	r24, 0x0374	; 0x800374 <movingyback>
    196c:	88 23       	and	r24, r24
    196e:	09 f4       	brne	.+2      	; 0x1972 <_Z4movyiii+0x1fc>
    1970:	74 c0       	rjmp	.+232    	; 0x1a5a <_Z4movyiii+0x2e4>
    1972:	d1 94       	neg	r13
    1974:	c1 94       	neg	r12
    1976:	d1 08       	sbc	r13, r1
    1978:	d0 92 b7 02 	sts	0x02B7, r13	; 0x8002b7 <driveY+0x7>
    197c:	c0 92 b6 02 	sts	0x02B6, r12	; 0x8002b6 <driveY+0x6>
    1980:	e3 e1       	ldi	r30, 0x13	; 19
    1982:	ce 0e       	add	r12, r30
    1984:	d1 1c       	adc	r13, r1
    1986:	f7 e2       	ldi	r31, 0x27	; 39
    1988:	cf 16       	cp	r12, r31
    198a:	d1 04       	cpc	r13, r1
    198c:	c8 f4       	brcc	.+50     	; 0x19c0 <_Z4movyiii+0x24a>
    198e:	12 c0       	rjmp	.+36     	; 0x19b4 <_Z4movyiii+0x23e>
    1990:	43 96       	adiw	r24, 0x13	; 19
    1992:	87 97       	sbiw	r24, 0x27	; 39
    1994:	a8 f4       	brcc	.+42     	; 0x19c0 <_Z4movyiii+0x24a>
    1996:	80 91 75 03 	lds	r24, 0x0375	; 0x800375 <movingyfront>
    199a:	88 23       	and	r24, r24
    199c:	39 f0       	breq	.+14     	; 0x19ac <_Z4movyiii+0x236>
    199e:	84 e1       	ldi	r24, 0x14	; 20
    19a0:	90 e0       	ldi	r25, 0x00	; 0
    19a2:	90 93 b7 02 	sts	0x02B7, r25	; 0x8002b7 <driveY+0x7>
    19a6:	80 93 b6 02 	sts	0x02B6, r24	; 0x8002b6 <driveY+0x6>
    19aa:	0a c0       	rjmp	.+20     	; 0x19c0 <_Z4movyiii+0x24a>
    19ac:	80 91 74 03 	lds	r24, 0x0374	; 0x800374 <movingyback>
    19b0:	88 23       	and	r24, r24
    19b2:	31 f0       	breq	.+12     	; 0x19c0 <_Z4movyiii+0x24a>
    19b4:	8c ee       	ldi	r24, 0xEC	; 236
    19b6:	9f ef       	ldi	r25, 0xFF	; 255
    19b8:	90 93 b7 02 	sts	0x02B7, r25	; 0x8002b7 <driveY+0x7>
    19bc:	80 93 b6 02 	sts	0x02B6, r24	; 0x8002b6 <driveY+0x6>
    19c0:	80 91 b6 02 	lds	r24, 0x02B6	; 0x8002b6 <driveY+0x6>
    19c4:	90 91 b7 02 	lds	r25, 0x02B7	; 0x8002b7 <driveY+0x7>
    19c8:	90 93 81 03 	sts	0x0381, r25	; 0x800381 <velocity_robot+0x3>
    19cc:	80 93 80 03 	sts	0x0380, r24	; 0x800380 <velocity_robot+0x2>
    19d0:	18 c0       	rjmp	.+48     	; 0x1a02 <_Z4movyiii+0x28c>
    19d2:	b9 01       	movw	r22, r18
    19d4:	33 0f       	add	r19, r19
    19d6:	88 0b       	sbc	r24, r24
    19d8:	99 0b       	sbc	r25, r25
    19da:	0e 94 01 1e 	call	0x3c02	; 0x3c02 <__floatsisf>
    19de:	26 e6       	ldi	r18, 0x66	; 102
    19e0:	36 e6       	ldi	r19, 0x66	; 102
    19e2:	46 ee       	ldi	r20, 0xE6	; 230
    19e4:	5e e3       	ldi	r21, 0x3E	; 62
    19e6:	0e 94 1a 1f 	call	0x3e34	; 0x3e34 <__mulsf3>
    19ea:	20 e0       	ldi	r18, 0x00	; 0
    19ec:	30 e0       	ldi	r19, 0x00	; 0
    19ee:	40 e7       	ldi	r20, 0x70	; 112
    19f0:	52 e4       	ldi	r21, 0x42	; 66
    19f2:	0e 94 99 1c 	call	0x3932	; 0x3932 <__addsf3>
    19f6:	0e 94 ce 1d 	call	0x3b9c	; 0x3b9c <__fixsfsi>
    19fa:	70 93 81 03 	sts	0x0381, r23	; 0x800381 <velocity_robot+0x3>
    19fe:	60 93 80 03 	sts	0x0380, r22	; 0x800380 <velocity_robot+0x2>
    1a02:	82 e0       	ldi	r24, 0x02	; 2
    1a04:	e8 16       	cp	r14, r24
    1a06:	f1 04       	cpc	r15, r1
    1a08:	51 f4       	brne	.+20     	; 0x1a1e <_Z4movyiii+0x2a8>
    1a0a:	81 e0       	ldi	r24, 0x01	; 1
    1a0c:	80 93 75 03 	sts	0x0375, r24	; 0x800375 <movingyfront>
    1a10:	10 92 74 03 	sts	0x0374, r1	; 0x800374 <movingyback>
    1a14:	10 92 77 03 	sts	0x0377, r1	; 0x800377 <movingxfront>
    1a18:	10 92 76 03 	sts	0x0376, r1	; 0x800376 <movingxback>
    1a1c:	1b c0       	rjmp	.+54     	; 0x1a54 <_Z4movyiii+0x2de>
    1a1e:	e3 e0       	ldi	r30, 0x03	; 3
    1a20:	ee 16       	cp	r14, r30
    1a22:	f1 04       	cpc	r15, r1
    1a24:	b9 f4       	brne	.+46     	; 0x1a54 <_Z4movyiii+0x2de>
    1a26:	81 e0       	ldi	r24, 0x01	; 1
    1a28:	80 93 74 03 	sts	0x0374, r24	; 0x800374 <movingyback>
    1a2c:	10 92 75 03 	sts	0x0375, r1	; 0x800375 <movingyfront>
    1a30:	10 92 77 03 	sts	0x0377, r1	; 0x800377 <movingxfront>
    1a34:	10 92 76 03 	sts	0x0376, r1	; 0x800376 <movingxback>
    1a38:	ee e7       	ldi	r30, 0x7E	; 126
    1a3a:	f3 e0       	ldi	r31, 0x03	; 3
    1a3c:	82 81       	ldd	r24, Z+2	; 0x02
    1a3e:	93 81       	ldd	r25, Z+3	; 0x03
    1a40:	99 23       	and	r25, r25
    1a42:	1c f4       	brge	.+6      	; 0x1a4a <_Z4movyiii+0x2d4>
    1a44:	91 95       	neg	r25
    1a46:	81 95       	neg	r24
    1a48:	91 09       	sbc	r25, r1
    1a4a:	91 95       	neg	r25
    1a4c:	81 95       	neg	r24
    1a4e:	91 09       	sbc	r25, r1
    1a50:	93 83       	std	Z+3, r25	; 0x03
    1a52:	82 83       	std	Z+2, r24	; 0x02
    1a54:	b5 da       	rcall	.-2710   	; 0xfc0 <_Z24calculateLineTrackerYPidv>
    1a56:	9d d8       	rcall	.-3782   	; 0xb92 <_Z19calculateCompassPIDv>
    1a58:	09 c0       	rjmp	.+18     	; 0x1a6c <_Z4movyiii+0x2f6>
    1a5a:	80 91 b6 02 	lds	r24, 0x02B6	; 0x8002b6 <driveY+0x6>
    1a5e:	90 91 b7 02 	lds	r25, 0x02B7	; 0x8002b7 <driveY+0x7>
    1a62:	43 96       	adiw	r24, 0x13	; 19
    1a64:	87 97       	sbiw	r24, 0x27	; 39
    1a66:	08 f0       	brcs	.+2      	; 0x1a6a <_Z4movyiii+0x2f4>
    1a68:	ab cf       	rjmp	.-170    	; 0x19c0 <_Z4movyiii+0x24a>
    1a6a:	a0 cf       	rjmp	.-192    	; 0x19ac <_Z4movyiii+0x236>
    1a6c:	df 91       	pop	r29
    1a6e:	cf 91       	pop	r28
    1a70:	1f 91       	pop	r17
    1a72:	0f 91       	pop	r16
    1a74:	ff 90       	pop	r15
    1a76:	ef 90       	pop	r14
    1a78:	df 90       	pop	r13
    1a7a:	cf 90       	pop	r12
    1a7c:	bf 90       	pop	r11
    1a7e:	af 90       	pop	r10
    1a80:	9f 90       	pop	r9
    1a82:	8f 90       	pop	r8
    1a84:	7f 90       	pop	r7
    1a86:	6f 90       	pop	r6
    1a88:	5f 90       	pop	r5
    1a8a:	4f 90       	pop	r4
    1a8c:	3f 90       	pop	r3
    1a8e:	2f 90       	pop	r2
    1a90:	08 95       	ret

00001a92 <_Z15movYForwardSlowj>:
    1a92:	21 e0       	ldi	r18, 0x01	; 1
    1a94:	20 93 08 02 	sts	0x0208, r18	; 0x800208 <inverseKinematicTrue>
    1a98:	10 92 77 03 	sts	0x0377, r1	; 0x800377 <movingxfront>
    1a9c:	10 92 76 03 	sts	0x0376, r1	; 0x800376 <movingxback>
    1aa0:	20 93 75 03 	sts	0x0375, r18	; 0x800375 <movingyfront>
    1aa4:	10 92 74 03 	sts	0x0374, r1	; 0x800374 <movingyback>
    1aa8:	90 93 81 03 	sts	0x0381, r25	; 0x800381 <velocity_robot+0x3>
    1aac:	80 93 80 03 	sts	0x0380, r24	; 0x800380 <velocity_robot+0x2>
    1ab0:	87 da       	rcall	.-2802   	; 0xfc0 <_Z24calculateLineTrackerYPidv>
    1ab2:	6f c8       	rjmp	.-3874   	; 0xb92 <_Z19calculateCompassPIDv>
    1ab4:	08 95       	ret

00001ab6 <_Z12holdpositionv>:
    1ab6:	81 e0       	ldi	r24, 0x01	; 1
    1ab8:	80 93 08 02 	sts	0x0208, r24	; 0x800208 <inverseKinematicTrue>
    1abc:	ee e7       	ldi	r30, 0x7E	; 126
    1abe:	f3 e0       	ldi	r31, 0x03	; 3
    1ac0:	11 82       	std	Z+1, r1	; 0x01
    1ac2:	10 82       	st	Z, r1
    1ac4:	13 82       	std	Z+3, r1	; 0x03
    1ac6:	12 82       	std	Z+2, r1	; 0x02
    1ac8:	e2 ef       	ldi	r30, 0xF2	; 242
    1aca:	f2 e0       	ldi	r31, 0x02	; 2
    1acc:	80 e0       	ldi	r24, 0x00	; 0
    1ace:	90 e0       	ldi	r25, 0x00	; 0
    1ad0:	a0 ee       	ldi	r26, 0xE0	; 224
    1ad2:	b0 e4       	ldi	r27, 0x40	; 64
    1ad4:	85 8b       	std	Z+21, r24	; 0x15
    1ad6:	96 8b       	std	Z+22, r25	; 0x16
    1ad8:	a7 8b       	std	Z+23, r26	; 0x17
    1ada:	b0 8f       	std	Z+24, r27	; 0x18
    1adc:	11 8e       	std	Z+25, r1	; 0x19
    1ade:	12 8e       	std	Z+26, r1	; 0x1a
    1ae0:	13 8e       	std	Z+27, r1	; 0x1b
    1ae2:	14 8e       	std	Z+28, r1	; 0x1c
    1ae4:	80 e0       	ldi	r24, 0x00	; 0
    1ae6:	90 e0       	ldi	r25, 0x00	; 0
    1ae8:	a0 e4       	ldi	r26, 0x40	; 64
    1aea:	b1 e4       	ldi	r27, 0x41	; 65
    1aec:	85 8f       	std	Z+29, r24	; 0x1d
    1aee:	96 8f       	std	Z+30, r25	; 0x1e
    1af0:	a7 8f       	std	Z+31, r26	; 0x1f
    1af2:	b0 a3       	std	Z+32, r27	; 0x20
    1af4:	4e c8       	rjmp	.-3940   	; 0xb92 <_Z19calculateCompassPIDv>
    1af6:	08 95       	ret

00001af8 <_Z12Stable_Robotv>:
    1af8:	0f 93       	push	r16
    1afa:	1f 93       	push	r17
    1afc:	dc df       	rcall	.-72     	; 0x1ab6 <_Z12holdpositionv>
    1afe:	0e 94 c4 01 	call	0x388	; 0x388 <_Z6millisv>
    1b02:	00 91 aa 02 	lds	r16, 0x02AA	; 0x8002aa <millis_time_then>
    1b06:	10 91 ab 02 	lds	r17, 0x02AB	; 0x8002ab <millis_time_then+0x1>
    1b0a:	20 91 ac 02 	lds	r18, 0x02AC	; 0x8002ac <millis_time_then+0x2>
    1b0e:	30 91 ad 02 	lds	r19, 0x02AD	; 0x8002ad <millis_time_then+0x3>
    1b12:	dc 01       	movw	r26, r24
    1b14:	cb 01       	movw	r24, r22
    1b16:	80 1b       	sub	r24, r16
    1b18:	91 0b       	sbc	r25, r17
    1b1a:	a2 0b       	sbc	r26, r18
    1b1c:	b3 0b       	sbc	r27, r19
    1b1e:	02 97       	sbiw	r24, 0x02	; 2
    1b20:	a1 05       	cpc	r26, r1
    1b22:	b1 05       	cpc	r27, r1
    1b24:	a8 f1       	brcs	.+106    	; 0x1b90 <_Z12Stable_Robotv+0x98>
    1b26:	0e 94 1c 03 	call	0x638	; 0x638 <_Z10getYawGY88v>
    1b2a:	20 91 00 03 	lds	r18, 0x0300	; 0x800300 <compass+0xe>
    1b2e:	30 91 01 03 	lds	r19, 0x0301	; 0x800301 <compass+0xf>
    1b32:	a9 01       	movw	r20, r18
    1b34:	4f 5f       	subi	r20, 0xFF	; 255
    1b36:	5f 4f       	sbci	r21, 0xFF	; 255
    1b38:	48 17       	cp	r20, r24
    1b3a:	59 07       	cpc	r21, r25
    1b3c:	90 f0       	brcs	.+36     	; 0x1b62 <_Z12Stable_Robotv+0x6a>
    1b3e:	21 50       	subi	r18, 0x01	; 1
    1b40:	31 09       	sbc	r19, r1
    1b42:	82 17       	cp	r24, r18
    1b44:	93 07       	cpc	r25, r19
    1b46:	68 f0       	brcs	.+26     	; 0x1b62 <_Z12Stable_Robotv+0x6a>
    1b48:	80 91 ae 02 	lds	r24, 0x02AE	; 0x8002ae <stable_data_count>
    1b4c:	90 91 af 02 	lds	r25, 0x02AF	; 0x8002af <stable_data_count+0x1>
    1b50:	01 96       	adiw	r24, 0x01	; 1
    1b52:	90 93 af 02 	sts	0x02AF, r25	; 0x8002af <stable_data_count+0x1>
    1b56:	80 93 ae 02 	sts	0x02AE, r24	; 0x8002ae <stable_data_count>
    1b5a:	84 36       	cpi	r24, 0x64	; 100
    1b5c:	91 05       	cpc	r25, r1
    1b5e:	31 f0       	breq	.+12     	; 0x1b6c <_Z12Stable_Robotv+0x74>
    1b60:	0b c0       	rjmp	.+22     	; 0x1b78 <_Z12Stable_Robotv+0x80>
    1b62:	10 92 af 02 	sts	0x02AF, r1	; 0x8002af <stable_data_count+0x1>
    1b66:	10 92 ae 02 	sts	0x02AE, r1	; 0x8002ae <stable_data_count>
    1b6a:	06 c0       	rjmp	.+12     	; 0x1b78 <_Z12Stable_Robotv+0x80>
    1b6c:	10 92 af 02 	sts	0x02AF, r1	; 0x8002af <stable_data_count+0x1>
    1b70:	10 92 ae 02 	sts	0x02AE, r1	; 0x8002ae <stable_data_count>
    1b74:	81 e0       	ldi	r24, 0x01	; 1
    1b76:	0d c0       	rjmp	.+26     	; 0x1b92 <_Z12Stable_Robotv+0x9a>
    1b78:	0e 94 c4 01 	call	0x388	; 0x388 <_Z6millisv>
    1b7c:	60 93 aa 02 	sts	0x02AA, r22	; 0x8002aa <millis_time_then>
    1b80:	70 93 ab 02 	sts	0x02AB, r23	; 0x8002ab <millis_time_then+0x1>
    1b84:	80 93 ac 02 	sts	0x02AC, r24	; 0x8002ac <millis_time_then+0x2>
    1b88:	90 93 ad 02 	sts	0x02AD, r25	; 0x8002ad <millis_time_then+0x3>
    1b8c:	80 e0       	ldi	r24, 0x00	; 0
    1b8e:	01 c0       	rjmp	.+2      	; 0x1b92 <_Z12Stable_Robotv+0x9a>
    1b90:	80 e0       	ldi	r24, 0x00	; 0
    1b92:	1f 91       	pop	r17
    1b94:	0f 91       	pop	r16
    1b96:	08 95       	ret

00001b98 <_Z14updateZoneflagv>:
    1b98:	cf 93       	push	r28
    1b9a:	80 91 a9 02 	lds	r24, 0x02A9	; 0x8002a9 <ShuttleCockGiven>
    1b9e:	81 11       	cpse	r24, r1
    1ba0:	a6 c0       	rjmp	.+332    	; 0x1cee <_Z14updateZoneflagv+0x156>
    1ba2:	80 91 09 01 	lds	r24, 0x0109	; 0x800109 <__TEXT_REGION_LENGTH__+0x700109>
    1ba6:	84 fd       	sbrc	r24, 4
    1ba8:	64 c0       	rjmp	.+200    	; 0x1c72 <_Z14updateZoneflagv+0xda>
    1baa:	80 91 9e 02 	lds	r24, 0x029E	; 0x80029e <where>
    1bae:	90 91 9f 02 	lds	r25, 0x029F	; 0x80029f <where+0x1>
    1bb2:	05 97       	sbiw	r24, 0x05	; 5
    1bb4:	09 f0       	breq	.+2      	; 0x1bb8 <_Z14updateZoneflagv+0x20>
    1bb6:	5d c0       	rjmp	.+186    	; 0x1c72 <_Z14updateZoneflagv+0xda>
    1bb8:	4f c0       	rjmp	.+158    	; 0x1c58 <_Z14updateZoneflagv+0xc0>
    1bba:	80 91 9e 02 	lds	r24, 0x029E	; 0x80029e <where>
    1bbe:	90 91 9f 02 	lds	r25, 0x029F	; 0x80029f <where+0x1>
    1bc2:	06 97       	sbiw	r24, 0x06	; 6
    1bc4:	f9 f4       	brne	.+62     	; 0x1c04 <_Z14updateZoneflagv+0x6c>
    1bc6:	80 91 07 02 	lds	r24, 0x0207	; 0x800207 <ManualInFrontOfLZ2>
    1bca:	81 11       	cpse	r24, r1
    1bcc:	57 c0       	rjmp	.+174    	; 0x1c7c <_Z14updateZoneflagv+0xe4>
    1bce:	1a c0       	rjmp	.+52     	; 0x1c04 <_Z14updateZoneflagv+0x6c>
    1bd0:	80 91 9e 02 	lds	r24, 0x029E	; 0x80029e <where>
    1bd4:	90 91 9f 02 	lds	r25, 0x029F	; 0x80029f <where+0x1>
    1bd8:	05 97       	sbiw	r24, 0x05	; 5
    1bda:	31 f0       	breq	.+12     	; 0x1be8 <_Z14updateZoneflagv+0x50>
    1bdc:	80 91 9e 02 	lds	r24, 0x029E	; 0x80029e <where>
    1be0:	90 91 9f 02 	lds	r25, 0x029F	; 0x80029f <where+0x1>
    1be4:	06 97       	sbiw	r24, 0x06	; 6
    1be6:	31 f4       	brne	.+12     	; 0x1bf4 <_Z14updateZoneflagv+0x5c>
    1be8:	81 e0       	ldi	r24, 0x01	; 1
    1bea:	80 93 a7 02 	sts	0x02A7, r24	; 0x8002a7 <ShuttleCockArmGone>
    1bee:	87 e7       	ldi	r24, 0x77	; 119
    1bf0:	0e 94 83 1c 	call	0x3906	; 0x3906 <_Z10uart3_putch>
    1bf4:	80 91 a9 02 	lds	r24, 0x02A9	; 0x8002a9 <ShuttleCockGiven>
    1bf8:	88 23       	and	r24, r24
    1bfa:	21 f0       	breq	.+8      	; 0x1c04 <_Z14updateZoneflagv+0x6c>
    1bfc:	80 91 a8 02 	lds	r24, 0x02A8	; 0x8002a8 <GoldenRackGiven>
    1c00:	81 11       	cpse	r24, r1
    1c02:	7a c0       	rjmp	.+244    	; 0x1cf8 <_Z14updateZoneflagv+0x160>
    1c04:	80 91 06 02 	lds	r24, 0x0206	; 0x800206 <sendoncetorotateGeneva>
    1c08:	88 23       	and	r24, r24
    1c0a:	81 f0       	breq	.+32     	; 0x1c2c <_Z14updateZoneflagv+0x94>
    1c0c:	80 91 09 01 	lds	r24, 0x0109	; 0x800109 <__TEXT_REGION_LENGTH__+0x700109>
    1c10:	84 fd       	sbrc	r24, 4
    1c12:	0c c0       	rjmp	.+24     	; 0x1c2c <_Z14updateZoneflagv+0x94>
    1c14:	7d 99       	sbic	0x0f, 5	; 15
    1c16:	0a c0       	rjmp	.+20     	; 0x1c2c <_Z14updateZoneflagv+0x94>
    1c18:	80 91 07 02 	lds	r24, 0x0207	; 0x800207 <ManualInFrontOfLZ2>
    1c1c:	81 11       	cpse	r24, r1
    1c1e:	06 c0       	rjmp	.+12     	; 0x1c2c <_Z14updateZoneflagv+0x94>
    1c20:	80 91 9e 02 	lds	r24, 0x029E	; 0x80029e <where>
    1c24:	90 91 9f 02 	lds	r25, 0x029F	; 0x80029f <where+0x1>
    1c28:	06 97       	sbiw	r24, 0x06	; 6
    1c2a:	e9 f1       	breq	.+122    	; 0x1ca6 <_Z14updateZoneflagv+0x10e>
    1c2c:	7d 9b       	sbis	0x0f, 5	; 15
    1c2e:	58 c0       	rjmp	.+176    	; 0x1ce0 <_Z14updateZoneflagv+0x148>
    1c30:	80 91 9e 02 	lds	r24, 0x029E	; 0x80029e <where>
    1c34:	90 91 9f 02 	lds	r25, 0x029F	; 0x80029f <where+0x1>
    1c38:	06 97       	sbiw	r24, 0x06	; 6
    1c3a:	09 f0       	breq	.+2      	; 0x1c3e <_Z14updateZoneflagv+0xa6>
    1c3c:	51 c0       	rjmp	.+162    	; 0x1ce0 <_Z14updateZoneflagv+0x148>
    1c3e:	80 91 07 02 	lds	r24, 0x0207	; 0x800207 <ManualInFrontOfLZ2>
    1c42:	81 11       	cpse	r24, r1
    1c44:	4d c0       	rjmp	.+154    	; 0x1ce0 <_Z14updateZoneflagv+0x148>
    1c46:	35 c0       	rjmp	.+106    	; 0x1cb2 <_Z14updateZoneflagv+0x11a>
    1c48:	10 92 a8 02 	sts	0x02A8, r1	; 0x8002a8 <GoldenRackGiven>
    1c4c:	81 e0       	ldi	r24, 0x01	; 1
    1c4e:	80 93 a4 02 	sts	0x02A4, r24	; 0x8002a4 <GoThrowingZone2>
    1c52:	10 92 a3 02 	sts	0x02A3, r1	; 0x8002a3 <GoThrowingZone3>
    1c56:	50 c0       	rjmp	.+160    	; 0x1cf8 <_Z14updateZoneflagv+0x160>
    1c58:	8f e6       	ldi	r24, 0x6F	; 111
    1c5a:	0e 94 83 1c 	call	0x3906	; 0x3906 <_Z10uart3_putch>
    1c5e:	81 e0       	ldi	r24, 0x01	; 1
    1c60:	80 93 a9 02 	sts	0x02A9, r24	; 0x8002a9 <ShuttleCockGiven>
    1c64:	80 93 a5 02 	sts	0x02A5, r24	; 0x8002a5 <GoThrowingZone1>
    1c68:	10 92 9a 02 	sts	0x029A, r1	; 0x80029a <task4>
    1c6c:	10 92 9b 02 	sts	0x029B, r1	; 0x80029b <task3>
    1c70:	3e c0       	rjmp	.+124    	; 0x1cee <_Z14updateZoneflagv+0x156>
    1c72:	80 91 09 01 	lds	r24, 0x0109	; 0x800109 <__TEXT_REGION_LENGTH__+0x700109>
    1c76:	84 ff       	sbrs	r24, 4
    1c78:	a0 cf       	rjmp	.-192    	; 0x1bba <_Z14updateZoneflagv+0x22>
    1c7a:	c4 cf       	rjmp	.-120    	; 0x1c04 <_Z14updateZoneflagv+0x6c>
    1c7c:	8f e6       	ldi	r24, 0x6F	; 111
    1c7e:	0e 94 83 1c 	call	0x3906	; 0x3906 <_Z10uart3_putch>
    1c82:	81 e0       	ldi	r24, 0x01	; 1
    1c84:	80 93 a9 02 	sts	0x02A9, r24	; 0x8002a9 <ShuttleCockGiven>
    1c88:	10 92 a5 02 	sts	0x02A5, r1	; 0x8002a5 <GoThrowingZone1>
    1c8c:	80 93 a4 02 	sts	0x02A4, r24	; 0x8002a4 <GoThrowingZone2>
    1c90:	80 93 99 02 	sts	0x0299, r24	; 0x800299 <task5>
    1c94:	80 93 9a 02 	sts	0x029A, r24	; 0x80029a <task4>
    1c98:	80 93 9b 02 	sts	0x029B, r24	; 0x80029b <task3>
    1c9c:	10 92 97 02 	sts	0x0297, r1	; 0x800297 <task7>
    1ca0:	10 92 98 02 	sts	0x0298, r1	; 0x800298 <task6>
    1ca4:	24 c0       	rjmp	.+72     	; 0x1cee <_Z14updateZoneflagv+0x156>
    1ca6:	8b e6       	ldi	r24, 0x6B	; 107
    1ca8:	0e 94 83 1c 	call	0x3906	; 0x3906 <_Z10uart3_putch>
    1cac:	10 92 06 02 	sts	0x0206, r1	; 0x800206 <sendoncetorotateGeneva>
    1cb0:	bd cf       	rjmp	.-134    	; 0x1c2c <_Z14updateZoneflagv+0x94>
    1cb2:	c1 e0       	ldi	r28, 0x01	; 1
    1cb4:	c0 93 97 02 	sts	0x0297, r28	; 0x800297 <task7>
    1cb8:	c0 93 98 02 	sts	0x0298, r28	; 0x800298 <task6>
    1cbc:	10 92 95 02 	sts	0x0295, r1	; 0x800295 <task9>
    1cc0:	10 92 96 02 	sts	0x0296, r1	; 0x800296 <task8>
    1cc4:	8a e6       	ldi	r24, 0x6A	; 106
    1cc6:	0e 94 83 1c 	call	0x3906	; 0x3906 <_Z10uart3_putch>
    1cca:	c0 93 a8 02 	sts	0x02A8, r28	; 0x8002a8 <GoldenRackGiven>
    1cce:	c0 93 a7 02 	sts	0x02A7, r28	; 0x8002a7 <ShuttleCockArmGone>
    1cd2:	c0 93 a9 02 	sts	0x02A9, r28	; 0x8002a9 <ShuttleCockGiven>
    1cd6:	c0 93 a3 02 	sts	0x02A3, r28	; 0x8002a3 <GoThrowingZone3>
    1cda:	10 92 a4 02 	sts	0x02A4, r1	; 0x8002a4 <GoThrowingZone2>
    1cde:	0c c0       	rjmp	.+24     	; 0x1cf8 <_Z14updateZoneflagv+0x160>
    1ce0:	80 91 9e 02 	lds	r24, 0x029E	; 0x80029e <where>
    1ce4:	90 91 9f 02 	lds	r25, 0x029F	; 0x80029f <where+0x1>
    1ce8:	06 97       	sbiw	r24, 0x06	; 6
    1cea:	31 f4       	brne	.+12     	; 0x1cf8 <_Z14updateZoneflagv+0x160>
    1cec:	ad cf       	rjmp	.-166    	; 0x1c48 <_Z14updateZoneflagv+0xb0>
    1cee:	80 91 09 01 	lds	r24, 0x0109	; 0x800109 <__TEXT_REGION_LENGTH__+0x700109>
    1cf2:	84 fd       	sbrc	r24, 4
    1cf4:	6d cf       	rjmp	.-294    	; 0x1bd0 <_Z14updateZoneflagv+0x38>
    1cf6:	82 cf       	rjmp	.-252    	; 0x1bfc <_Z14updateZoneflagv+0x64>
    1cf8:	cf 91       	pop	r28
    1cfa:	08 95       	ret

00001cfc <_Z18gorockthegamefieldv>:
    1cfc:	80 91 9e 02 	lds	r24, 0x029E	; 0x80029e <where>
    1d00:	90 91 9f 02 	lds	r25, 0x029F	; 0x80029f <where+0x1>
    1d04:	05 97       	sbiw	r24, 0x05	; 5
    1d06:	39 f0       	breq	.+14     	; 0x1d16 <_Z18gorockthegamefieldv+0x1a>
    1d08:	80 91 9e 02 	lds	r24, 0x029E	; 0x80029e <where>
    1d0c:	90 91 9f 02 	lds	r25, 0x029F	; 0x80029f <where+0x1>
    1d10:	06 97       	sbiw	r24, 0x06	; 6
    1d12:	09 f0       	breq	.+2      	; 0x1d16 <_Z18gorockthegamefieldv+0x1a>
    1d14:	52 c0       	rjmp	.+164    	; 0x1dba <_Z18gorockthegamefieldv+0xbe>
    1d16:	80 91 04 02 	lds	r24, 0x0204	; 0x800204 <robotState>
    1d1a:	90 91 05 02 	lds	r25, 0x0205	; 0x800205 <robotState+0x1>
    1d1e:	08 97       	sbiw	r24, 0x08	; 8
    1d20:	09 f0       	breq	.+2      	; 0x1d24 <_Z18gorockthegamefieldv+0x28>
    1d22:	4b c0       	rjmp	.+150    	; 0x1dba <_Z18gorockthegamefieldv+0xbe>
    1d24:	a6 c3       	rjmp	.+1868   	; 0x2472 <__stack+0x273>
    1d26:	80 91 99 02 	lds	r24, 0x0299	; 0x800299 <task5>
    1d2a:	81 11       	cpse	r24, r1
    1d2c:	1f c0       	rjmp	.+62     	; 0x1d6c <_Z18gorockthegamefieldv+0x70>
    1d2e:	80 91 09 01 	lds	r24, 0x0109	; 0x800109 <__TEXT_REGION_LENGTH__+0x700109>
    1d32:	86 ff       	sbrs	r24, 6
    1d34:	12 c0       	rjmp	.+36     	; 0x1d5a <_Z18gorockthegamefieldv+0x5e>
    1d36:	85 e0       	ldi	r24, 0x05	; 5
    1d38:	90 e0       	ldi	r25, 0x00	; 0
    1d3a:	90 93 9f 02 	sts	0x029F, r25	; 0x80029f <where+0x1>
    1d3e:	80 93 9e 02 	sts	0x029E, r24	; 0x80029e <where>
    1d42:	81 e0       	ldi	r24, 0x01	; 1
    1d44:	80 93 a0 02 	sts	0x02A0, r24	; 0x8002a0 <gotoLZ2>
    1d48:	10 92 47 04 	sts	0x0447, r1	; 0x800447 <FlagChangeSetpointCompass>
    1d4c:	10 92 3c 02 	sts	0x023C, r1	; 0x80023c <FlagInitialAngleSetpoint>
    1d50:	80 93 a9 02 	sts	0x02A9, r24	; 0x8002a9 <ShuttleCockGiven>
    1d54:	80 93 a7 02 	sts	0x02A7, r24	; 0x8002a7 <ShuttleCockArmGone>
    1d58:	30 c0       	rjmp	.+96     	; 0x1dba <_Z18gorockthegamefieldv+0xbe>
    1d5a:	81 e0       	ldi	r24, 0x01	; 1
    1d5c:	80 93 a5 02 	sts	0x02A5, r24	; 0x8002a5 <GoThrowingZone1>
    1d60:	10 92 9a 02 	sts	0x029A, r1	; 0x80029a <task4>
    1d64:	10 92 9b 02 	sts	0x029B, r1	; 0x80029b <task3>
    1d68:	17 df       	rcall	.-466    	; 0x1b98 <_Z14updateZoneflagv>
    1d6a:	27 c0       	rjmp	.+78     	; 0x1dba <_Z18gorockthegamefieldv+0xbe>
    1d6c:	80 91 98 02 	lds	r24, 0x0298	; 0x800298 <task6>
    1d70:	88 23       	and	r24, r24
    1d72:	09 f1       	breq	.+66     	; 0x1db6 <_Z18gorockthegamefieldv+0xba>
    1d74:	80 91 97 02 	lds	r24, 0x0297	; 0x800297 <task7>
    1d78:	88 23       	and	r24, r24
    1d7a:	e9 f0       	breq	.+58     	; 0x1db6 <_Z18gorockthegamefieldv+0xba>
    1d7c:	80 91 09 01 	lds	r24, 0x0109	; 0x800109 <__TEXT_REGION_LENGTH__+0x700109>
    1d80:	86 ff       	sbrs	r24, 6
    1d82:	0b c0       	rjmp	.+22     	; 0x1d9a <_Z18gorockthegamefieldv+0x9e>
    1d84:	86 e0       	ldi	r24, 0x06	; 6
    1d86:	90 e0       	ldi	r25, 0x00	; 0
    1d88:	90 93 9f 02 	sts	0x029F, r25	; 0x80029f <where+0x1>
    1d8c:	80 93 9e 02 	sts	0x029E, r24	; 0x80029e <where>
    1d90:	10 92 07 02 	sts	0x0207, r1	; 0x800207 <ManualInFrontOfLZ2>
    1d94:	01 df       	rcall	.-510    	; 0x1b98 <_Z14updateZoneflagv>
    1d96:	8f de       	rcall	.-738    	; 0x1ab6 <_Z12holdpositionv>
    1d98:	10 c0       	rjmp	.+32     	; 0x1dba <_Z18gorockthegamefieldv+0xbe>
    1d9a:	80 91 07 02 	lds	r24, 0x0207	; 0x800207 <ManualInFrontOfLZ2>
    1d9e:	88 23       	and	r24, r24
    1da0:	39 f0       	breq	.+14     	; 0x1db0 <_Z18gorockthegamefieldv+0xb4>
    1da2:	10 92 97 02 	sts	0x0297, r1	; 0x800297 <task7>
    1da6:	10 92 98 02 	sts	0x0298, r1	; 0x800298 <task6>
    1daa:	10 92 94 02 	sts	0x0294, r1	; 0x800294 <xJunctionMeetFromTZ2>
    1dae:	05 c0       	rjmp	.+10     	; 0x1dba <_Z18gorockthegamefieldv+0xbe>
    1db0:	f3 de       	rcall	.-538    	; 0x1b98 <_Z14updateZoneflagv>
    1db2:	81 de       	rcall	.-766    	; 0x1ab6 <_Z12holdpositionv>
    1db4:	02 c0       	rjmp	.+4      	; 0x1dba <_Z18gorockthegamefieldv+0xbe>
    1db6:	f0 de       	rcall	.-544    	; 0x1b98 <_Z14updateZoneflagv>
    1db8:	7e de       	rcall	.-772    	; 0x1ab6 <_Z12holdpositionv>
    1dba:	80 91 9d 02 	lds	r24, 0x029D	; 0x80029d <task1>
    1dbe:	81 11       	cpse	r24, r1
    1dc0:	14 c0       	rjmp	.+40     	; 0x1dea <_Z18gorockthegamefieldv+0xee>
    1dc2:	80 91 9e 02 	lds	r24, 0x029E	; 0x80029e <where>
    1dc6:	90 91 9f 02 	lds	r25, 0x029F	; 0x80029f <where+0x1>
    1dca:	89 2b       	or	r24, r25
    1dcc:	09 f4       	brne	.+2      	; 0x1dd0 <_Z18gorockthegamefieldv+0xd4>
    1dce:	56 c3       	rjmp	.+1708   	; 0x247c <__stack+0x27d>
    1dd0:	5a c0       	rjmp	.+180    	; 0x1e86 <_Z18gorockthegamefieldv+0x18a>
    1dd2:	78 94       	sei
    1dd4:	e8 e6       	ldi	r30, 0x68	; 104
    1dd6:	f0 e0       	ldi	r31, 0x00	; 0
    1dd8:	80 81       	ld	r24, Z
    1dda:	81 60       	ori	r24, 0x01	; 1
    1ddc:	80 83       	st	Z, r24
    1dde:	eb e6       	ldi	r30, 0x6B	; 107
    1de0:	f0 e0       	ldi	r31, 0x00	; 0
    1de2:	80 81       	ld	r24, Z
    1de4:	80 61       	ori	r24, 0x10	; 16
    1de6:	80 83       	st	Z, r24
    1de8:	4e c0       	rjmp	.+156    	; 0x1e86 <_Z18gorockthegamefieldv+0x18a>
    1dea:	80 91 9c 02 	lds	r24, 0x029C	; 0x80029c <task2>
    1dee:	81 11       	cpse	r24, r1
    1df0:	20 c0       	rjmp	.+64     	; 0x1e32 <_Z18gorockthegamefieldv+0x136>
    1df2:	81 e0       	ldi	r24, 0x01	; 1
    1df4:	90 e0       	ldi	r25, 0x00	; 0
    1df6:	90 93 9f 02 	sts	0x029F, r25	; 0x80029f <where+0x1>
    1dfa:	80 93 9e 02 	sts	0x029E, r24	; 0x80029e <where>
    1dfe:	87 e0       	ldi	r24, 0x07	; 7
    1e00:	90 e0       	ldi	r25, 0x00	; 0
    1e02:	90 93 05 02 	sts	0x0205, r25	; 0x800205 <robotState+0x1>
    1e06:	80 93 04 02 	sts	0x0204, r24	; 0x800204 <robotState>
    1e0a:	eb e6       	ldi	r30, 0x6B	; 107
    1e0c:	f0 e0       	ldi	r31, 0x00	; 0
    1e0e:	80 81       	ld	r24, Z
    1e10:	8f 7e       	andi	r24, 0xEF	; 239
    1e12:	80 83       	st	Z, r24
    1e14:	78 94       	sei
    1e16:	e8 e6       	ldi	r30, 0x68	; 104
    1e18:	f0 e0       	ldi	r31, 0x00	; 0
    1e1a:	80 81       	ld	r24, Z
    1e1c:	84 60       	ori	r24, 0x04	; 4
    1e1e:	80 83       	st	Z, r24
    1e20:	ed e6       	ldi	r30, 0x6D	; 109
    1e22:	f0 e0       	ldi	r31, 0x00	; 0
    1e24:	80 81       	ld	r24, Z
    1e26:	80 68       	ori	r24, 0x80	; 128
    1e28:	80 83       	st	Z, r24
    1e2a:	88 e2       	ldi	r24, 0x28	; 40
    1e2c:	90 e0       	ldi	r25, 0x00	; 0
    1e2e:	31 de       	rcall	.-926    	; 0x1a92 <_Z15movYForwardSlowj>
    1e30:	2a c0       	rjmp	.+84     	; 0x1e86 <_Z18gorockthegamefieldv+0x18a>
    1e32:	80 91 9e 02 	lds	r24, 0x029E	; 0x80029e <where>
    1e36:	90 91 9f 02 	lds	r25, 0x029F	; 0x80029f <where+0x1>
    1e3a:	01 97       	sbiw	r24, 0x01	; 1
    1e3c:	21 f5       	brne	.+72     	; 0x1e86 <_Z18gorockthegamefieldv+0x18a>
    1e3e:	80 91 04 02 	lds	r24, 0x0204	; 0x800204 <robotState>
    1e42:	90 91 05 02 	lds	r25, 0x0205	; 0x800205 <robotState+0x1>
    1e46:	07 97       	sbiw	r24, 0x07	; 7
    1e48:	f1 f4       	brne	.+60     	; 0x1e86 <_Z18gorockthegamefieldv+0x18a>
    1e4a:	85 e0       	ldi	r24, 0x05	; 5
    1e4c:	90 e0       	ldi	r25, 0x00	; 0
    1e4e:	90 93 9f 02 	sts	0x029F, r25	; 0x80029f <where+0x1>
    1e52:	80 93 9e 02 	sts	0x029E, r24	; 0x80029e <where>
    1e56:	88 e6       	ldi	r24, 0x68	; 104
    1e58:	0e 94 83 1c 	call	0x3906	; 0x3906 <_Z10uart3_putch>
    1e5c:	88 e0       	ldi	r24, 0x08	; 8
    1e5e:	90 e0       	ldi	r25, 0x00	; 0
    1e60:	90 93 05 02 	sts	0x0205, r25	; 0x800205 <robotState+0x1>
    1e64:	80 93 04 02 	sts	0x0204, r24	; 0x800204 <robotState>
    1e68:	ed e6       	ldi	r30, 0x6D	; 109
    1e6a:	f0 e0       	ldi	r31, 0x00	; 0
    1e6c:	80 81       	ld	r24, Z
    1e6e:	8f 77       	andi	r24, 0x7F	; 127
    1e70:	80 83       	st	Z, r24
    1e72:	0e 94 f2 04 	call	0x9e4	; 0x9e4 <_Z10BrakeMotorv>
    1e76:	10 92 8c 02 	sts	0x028C, r1	; 0x80028c <encoderX+0x1>
    1e7a:	10 92 8b 02 	sts	0x028B, r1	; 0x80028b <encoderX>
    1e7e:	10 92 84 02 	sts	0x0284, r1	; 0x800284 <encoderY+0x1>
    1e82:	10 92 83 02 	sts	0x0283, r1	; 0x800283 <encoderY>
    1e86:	80 91 a9 02 	lds	r24, 0x02A9	; 0x8002a9 <ShuttleCockGiven>
    1e8a:	88 23       	and	r24, r24
    1e8c:	09 f4       	brne	.+2      	; 0x1e90 <_Z18gorockthegamefieldv+0x194>
    1e8e:	7c c4       	rjmp	.+2296   	; 0x2788 <__stack+0x589>
    1e90:	80 91 a7 02 	lds	r24, 0x02A7	; 0x8002a7 <ShuttleCockArmGone>
    1e94:	88 23       	and	r24, r24
    1e96:	09 f4       	brne	.+2      	; 0x1e9a <_Z18gorockthegamefieldv+0x19e>
    1e98:	77 c4       	rjmp	.+2286   	; 0x2788 <__stack+0x589>
    1e9a:	80 91 a5 02 	lds	r24, 0x02A5	; 0x8002a5 <GoThrowingZone1>
    1e9e:	88 23       	and	r24, r24
    1ea0:	09 f4       	brne	.+2      	; 0x1ea4 <_Z18gorockthegamefieldv+0x1a8>
    1ea2:	57 c3       	rjmp	.+1710   	; 0x2552 <__stack+0x353>
    1ea4:	80 91 9b 02 	lds	r24, 0x029B	; 0x80029b <task3>
    1ea8:	81 11       	cpse	r24, r1
    1eaa:	13 c0       	rjmp	.+38     	; 0x1ed2 <_Z18gorockthegamefieldv+0x1d6>
    1eac:	80 91 9e 02 	lds	r24, 0x029E	; 0x80029e <where>
    1eb0:	90 91 9f 02 	lds	r25, 0x029F	; 0x80029f <where+0x1>
    1eb4:	05 97       	sbiw	r24, 0x05	; 5
    1eb6:	f1 f4       	brne	.+60     	; 0x1ef4 <_Z18gorockthegamefieldv+0x1f8>
    1eb8:	17 c3       	rjmp	.+1582   	; 0x24e8 <__stack+0x2e9>
    1eba:	78 94       	sei
    1ebc:	e8 e6       	ldi	r30, 0x68	; 104
    1ebe:	f0 e0       	ldi	r31, 0x00	; 0
    1ec0:	80 81       	ld	r24, Z
    1ec2:	84 60       	ori	r24, 0x04	; 4
    1ec4:	80 83       	st	Z, r24
    1ec6:	ed e6       	ldi	r30, 0x6D	; 109
    1ec8:	f0 e0       	ldi	r31, 0x00	; 0
    1eca:	80 81       	ld	r24, Z
    1ecc:	80 68       	ori	r24, 0x80	; 128
    1ece:	80 83       	st	Z, r24
    1ed0:	11 c0       	rjmp	.+34     	; 0x1ef4 <_Z18gorockthegamefieldv+0x1f8>
    1ed2:	80 91 9a 02 	lds	r24, 0x029A	; 0x80029a <task4>
    1ed6:	81 11       	cpse	r24, r1
    1ed8:	0d c0       	rjmp	.+26     	; 0x1ef4 <_Z18gorockthegamefieldv+0x1f8>
    1eda:	80 91 9e 02 	lds	r24, 0x029E	; 0x80029e <where>
    1ede:	90 91 9f 02 	lds	r25, 0x029F	; 0x80029f <where+0x1>
    1ee2:	05 97       	sbiw	r24, 0x05	; 5
    1ee4:	39 f4       	brne	.+14     	; 0x1ef4 <_Z18gorockthegamefieldv+0x1f8>
    1ee6:	80 91 04 02 	lds	r24, 0x0204	; 0x800204 <robotState>
    1eea:	90 91 05 02 	lds	r25, 0x0205	; 0x800205 <robotState+0x1>
    1eee:	07 97       	sbiw	r24, 0x07	; 7
    1ef0:	09 f4       	brne	.+2      	; 0x1ef4 <_Z18gorockthegamefieldv+0x1f8>
    1ef2:	35 c3       	rjmp	.+1642   	; 0x255e <__stack+0x35f>
    1ef4:	80 91 9e 02 	lds	r24, 0x029E	; 0x80029e <where>
    1ef8:	90 91 9f 02 	lds	r25, 0x029F	; 0x80029f <where+0x1>
    1efc:	02 97       	sbiw	r24, 0x02	; 2
    1efe:	f1 f4       	brne	.+60     	; 0x1f3c <_Z18gorockthegamefieldv+0x240>
    1f00:	80 91 04 02 	lds	r24, 0x0204	; 0x800204 <robotState>
    1f04:	90 91 05 02 	lds	r25, 0x0205	; 0x800205 <robotState+0x1>
    1f08:	08 97       	sbiw	r24, 0x08	; 8
    1f0a:	c1 f4       	brne	.+48     	; 0x1f3c <_Z18gorockthegamefieldv+0x240>
    1f0c:	48 c3       	rjmp	.+1680   	; 0x259e <__stack+0x39f>
    1f0e:	f4 dd       	rcall	.-1048   	; 0x1af8 <_Z12Stable_Robotv>
    1f10:	88 23       	and	r24, r24
    1f12:	29 f0       	breq	.+10     	; 0x1f1e <_Z18gorockthegamefieldv+0x222>
    1f14:	81 e3       	ldi	r24, 0x31	; 49
    1f16:	0e 94 83 1c 	call	0x3906	; 0x3906 <_Z10uart3_putch>
    1f1a:	10 92 a6 02 	sts	0x02A6, r1	; 0x8002a6 <_b_Transmit_once>
    1f1e:	0e 94 68 1c 	call	0x38d0	; 0x38d0 <_Z10uart3_getcv>
    1f22:	80 93 93 02 	sts	0x0293, r24	; 0x800293 <receiveAck>
    1f26:	87 36       	cpi	r24, 0x67	; 103
    1f28:	49 f4       	brne	.+18     	; 0x1f3c <_Z18gorockthegamefieldv+0x240>
    1f2a:	81 e0       	ldi	r24, 0x01	; 1
    1f2c:	80 93 a2 02 	sts	0x02A2, r24	; 0x8002a2 <backtoLZ1>
    1f30:	10 92 a5 02 	sts	0x02A5, r1	; 0x8002a5 <GoThrowingZone1>
    1f34:	80 e2       	ldi	r24, 0x20	; 32
    1f36:	80 93 93 02 	sts	0x0293, r24	; 0x800293 <receiveAck>
    1f3a:	05 c0       	rjmp	.+10     	; 0x1f46 <_Z18gorockthegamefieldv+0x24a>
    1f3c:	80 91 a2 02 	lds	r24, 0x02A2	; 0x8002a2 <backtoLZ1>
    1f40:	88 23       	and	r24, r24
    1f42:	09 f4       	brne	.+2      	; 0x1f46 <_Z18gorockthegamefieldv+0x24a>
    1f44:	49 c0       	rjmp	.+146    	; 0x1fd8 <_Z18gorockthegamefieldv+0x2dc>
    1f46:	80 91 9b 02 	lds	r24, 0x029B	; 0x80029b <task3>
    1f4a:	88 23       	and	r24, r24
    1f4c:	09 f4       	brne	.+2      	; 0x1f50 <_Z18gorockthegamefieldv+0x254>
    1f4e:	44 c0       	rjmp	.+136    	; 0x1fd8 <_Z18gorockthegamefieldv+0x2dc>
    1f50:	80 91 9a 02 	lds	r24, 0x029A	; 0x80029a <task4>
    1f54:	81 11       	cpse	r24, r1
    1f56:	45 c0       	rjmp	.+138    	; 0x1fe2 <_Z18gorockthegamefieldv+0x2e6>
    1f58:	e2 ef       	ldi	r30, 0xF2	; 242
    1f5a:	f2 e0       	ldi	r31, 0x02	; 2
    1f5c:	86 e6       	ldi	r24, 0x66	; 102
    1f5e:	96 e6       	ldi	r25, 0x66	; 102
    1f60:	a6 e0       	ldi	r26, 0x06	; 6
    1f62:	b0 e4       	ldi	r27, 0x40	; 64
    1f64:	85 8b       	std	Z+21, r24	; 0x15
    1f66:	96 8b       	std	Z+22, r25	; 0x16
    1f68:	a7 8b       	std	Z+23, r26	; 0x17
    1f6a:	b0 8f       	std	Z+24, r27	; 0x18
    1f6c:	11 8e       	std	Z+25, r1	; 0x19
    1f6e:	12 8e       	std	Z+26, r1	; 0x1a
    1f70:	13 8e       	std	Z+27, r1	; 0x1b
    1f72:	14 8e       	std	Z+28, r1	; 0x1c
    1f74:	80 e0       	ldi	r24, 0x00	; 0
    1f76:	90 e0       	ldi	r25, 0x00	; 0
    1f78:	a8 e4       	ldi	r26, 0x48	; 72
    1f7a:	b1 e4       	ldi	r27, 0x41	; 65
    1f7c:	85 8f       	std	Z+29, r24	; 0x1d
    1f7e:	96 8f       	std	Z+30, r25	; 0x1e
    1f80:	a7 8f       	std	Z+31, r26	; 0x1f
    1f82:	b0 a3       	std	Z+32, r27	; 0x20
    1f84:	44 e6       	ldi	r20, 0x64	; 100
    1f86:	50 e0       	ldi	r21, 0x00	; 0
    1f88:	63 e0       	ldi	r22, 0x03	; 3
    1f8a:	70 e0       	ldi	r23, 0x00	; 0
    1f8c:	88 e5       	ldi	r24, 0x58	; 88
    1f8e:	97 e0       	ldi	r25, 0x07	; 7
    1f90:	f2 db       	rcall	.-2076   	; 0x1776 <_Z4movyiii>
    1f92:	87 e0       	ldi	r24, 0x07	; 7
    1f94:	90 e0       	ldi	r25, 0x00	; 0
    1f96:	90 93 05 02 	sts	0x0205, r25	; 0x800205 <robotState+0x1>
    1f9a:	80 93 04 02 	sts	0x0204, r24	; 0x800204 <robotState>
    1f9e:	83 e8       	ldi	r24, 0x83	; 131
    1fa0:	92 e0       	ldi	r25, 0x02	; 2
    1fa2:	0e 94 de 00 	call	0x1bc	; 0x1bc <_ZN7encoder11getdistanceEv>
    1fa6:	0e 94 ce 1d 	call	0x3b9c	; 0x3b9c <__fixsfsi>
    1faa:	9b 01       	movw	r18, r22
    1fac:	77 23       	and	r23, r23
    1fae:	24 f4       	brge	.+8      	; 0x1fb8 <_Z18gorockthegamefieldv+0x2bc>
    1fb0:	22 27       	eor	r18, r18
    1fb2:	33 27       	eor	r19, r19
    1fb4:	26 1b       	sub	r18, r22
    1fb6:	37 0b       	sbc	r19, r23
    1fb8:	20 3b       	cpi	r18, 0xB0	; 176
    1fba:	34 40       	sbci	r19, 0x04	; 4
    1fbc:	0c f4       	brge	.+2      	; 0x1fc0 <_Z18gorockthegamefieldv+0x2c4>
    1fbe:	74 c0       	rjmp	.+232    	; 0x20a8 <_Z18gorockthegamefieldv+0x3ac>
    1fc0:	78 94       	sei
    1fc2:	e8 e6       	ldi	r30, 0x68	; 104
    1fc4:	f0 e0       	ldi	r31, 0x00	; 0
    1fc6:	80 81       	ld	r24, Z
    1fc8:	84 60       	ori	r24, 0x04	; 4
    1fca:	80 83       	st	Z, r24
    1fcc:	ed e6       	ldi	r30, 0x6D	; 109
    1fce:	f0 e0       	ldi	r31, 0x00	; 0
    1fd0:	80 81       	ld	r24, Z
    1fd2:	80 68       	ori	r24, 0x80	; 128
    1fd4:	80 83       	st	Z, r24
    1fd6:	68 c0       	rjmp	.+208    	; 0x20a8 <_Z18gorockthegamefieldv+0x3ac>
    1fd8:	80 91 9a 02 	lds	r24, 0x029A	; 0x80029a <task4>
    1fdc:	88 23       	and	r24, r24
    1fde:	09 f4       	brne	.+2      	; 0x1fe2 <_Z18gorockthegamefieldv+0x2e6>
    1fe0:	07 c3       	rjmp	.+1550   	; 0x25f0 <__stack+0x3f1>
    1fe2:	80 91 04 02 	lds	r24, 0x0204	; 0x800204 <robotState>
    1fe6:	90 91 05 02 	lds	r25, 0x0205	; 0x800205 <robotState+0x1>
    1fea:	07 97       	sbiw	r24, 0x07	; 7
    1fec:	09 f0       	breq	.+2      	; 0x1ff0 <_Z18gorockthegamefieldv+0x2f4>
    1fee:	00 c3       	rjmp	.+1536   	; 0x25f0 <__stack+0x3f1>
    1ff0:	80 91 9e 02 	lds	r24, 0x029E	; 0x80029e <where>
    1ff4:	90 91 9f 02 	lds	r25, 0x029F	; 0x80029f <where+0x1>
    1ff8:	02 97       	sbiw	r24, 0x02	; 2
    1ffa:	09 f0       	breq	.+2      	; 0x1ffe <_Z18gorockthegamefieldv+0x302>
    1ffc:	f9 c2       	rjmp	.+1522   	; 0x25f0 <__stack+0x3f1>
    1ffe:	d6 c2       	rjmp	.+1452   	; 0x25ac <__stack+0x3ad>
    2000:	80 91 99 02 	lds	r24, 0x0299	; 0x800299 <task5>
    2004:	81 11       	cpse	r24, r1
    2006:	43 c0       	rjmp	.+134    	; 0x208e <_Z18gorockthegamefieldv+0x392>
    2008:	e2 ef       	ldi	r30, 0xF2	; 242
    200a:	f2 e0       	ldi	r31, 0x02	; 2
    200c:	86 e6       	ldi	r24, 0x66	; 102
    200e:	96 e6       	ldi	r25, 0x66	; 102
    2010:	a6 e0       	ldi	r26, 0x06	; 6
    2012:	b0 e4       	ldi	r27, 0x40	; 64
    2014:	85 8b       	std	Z+21, r24	; 0x15
    2016:	96 8b       	std	Z+22, r25	; 0x16
    2018:	a7 8b       	std	Z+23, r26	; 0x17
    201a:	b0 8f       	std	Z+24, r27	; 0x18
    201c:	11 8e       	std	Z+25, r1	; 0x19
    201e:	12 8e       	std	Z+26, r1	; 0x1a
    2020:	13 8e       	std	Z+27, r1	; 0x1b
    2022:	14 8e       	std	Z+28, r1	; 0x1c
    2024:	80 e0       	ldi	r24, 0x00	; 0
    2026:	90 e0       	ldi	r25, 0x00	; 0
    2028:	a8 e4       	ldi	r26, 0x48	; 72
    202a:	b1 e4       	ldi	r27, 0x41	; 65
    202c:	85 8f       	std	Z+29, r24	; 0x1d
    202e:	96 8f       	std	Z+30, r25	; 0x1e
    2030:	a7 8f       	std	Z+31, r26	; 0x1f
    2032:	b0 a3       	std	Z+32, r27	; 0x20
    2034:	44 e6       	ldi	r20, 0x64	; 100
    2036:	50 e0       	ldi	r21, 0x00	; 0
    2038:	62 e0       	ldi	r22, 0x02	; 2
    203a:	70 e0       	ldi	r23, 0x00	; 0
    203c:	80 ed       	ldi	r24, 0xD0	; 208
    203e:	97 e0       	ldi	r25, 0x07	; 7
    2040:	5d d9       	rcall	.-3398   	; 0x12fc <_Z4movxiii>
    2042:	87 e0       	ldi	r24, 0x07	; 7
    2044:	90 e0       	ldi	r25, 0x00	; 0
    2046:	90 93 05 02 	sts	0x0205, r25	; 0x800205 <robotState+0x1>
    204a:	80 93 04 02 	sts	0x0204, r24	; 0x800204 <robotState>
    204e:	8b e8       	ldi	r24, 0x8B	; 139
    2050:	92 e0       	ldi	r25, 0x02	; 2
    2052:	0e 94 de 00 	call	0x1bc	; 0x1bc <_ZN7encoder11getdistanceEv>
    2056:	0e 94 ce 1d 	call	0x3b9c	; 0x3b9c <__fixsfsi>
    205a:	9b 01       	movw	r18, r22
    205c:	77 23       	and	r23, r23
    205e:	24 f4       	brge	.+8      	; 0x2068 <_Z18gorockthegamefieldv+0x36c>
    2060:	22 27       	eor	r18, r18
    2062:	33 27       	eor	r19, r19
    2064:	26 1b       	sub	r18, r22
    2066:	37 0b       	sbc	r19, r23
    2068:	2c 36       	cpi	r18, 0x6C	; 108
    206a:	37 40       	sbci	r19, 0x07	; 7
    206c:	ec f0       	brlt	.+58     	; 0x20a8 <_Z18gorockthegamefieldv+0x3ac>
    206e:	78 94       	sei
    2070:	e8 e6       	ldi	r30, 0x68	; 104
    2072:	f0 e0       	ldi	r31, 0x00	; 0
    2074:	80 81       	ld	r24, Z
    2076:	81 60       	ori	r24, 0x01	; 1
    2078:	80 83       	st	Z, r24
    207a:	eb e6       	ldi	r30, 0x6B	; 107
    207c:	f0 e0       	ldi	r31, 0x00	; 0
    207e:	80 81       	ld	r24, Z
    2080:	80 61       	ori	r24, 0x10	; 16
    2082:	80 83       	st	Z, r24
    2084:	11 c0       	rjmp	.+34     	; 0x20a8 <_Z18gorockthegamefieldv+0x3ac>
    2086:	80 91 99 02 	lds	r24, 0x0299	; 0x800299 <task5>
    208a:	88 23       	and	r24, r24
    208c:	69 f0       	breq	.+26     	; 0x20a8 <_Z18gorockthegamefieldv+0x3ac>
    208e:	80 91 04 02 	lds	r24, 0x0204	; 0x800204 <robotState>
    2092:	90 91 05 02 	lds	r25, 0x0205	; 0x800205 <robotState+0x1>
    2096:	07 97       	sbiw	r24, 0x07	; 7
    2098:	39 f4       	brne	.+14     	; 0x20a8 <_Z18gorockthegamefieldv+0x3ac>
    209a:	80 91 9e 02 	lds	r24, 0x029E	; 0x80029e <where>
    209e:	90 91 9f 02 	lds	r25, 0x029F	; 0x80029f <where+0x1>
    20a2:	05 97       	sbiw	r24, 0x05	; 5
    20a4:	09 f4       	brne	.+2      	; 0x20a8 <_Z18gorockthegamefieldv+0x3ac>
    20a6:	a9 c2       	rjmp	.+1362   	; 0x25fa <__stack+0x3fb>
    20a8:	80 91 a4 02 	lds	r24, 0x02A4	; 0x8002a4 <GoThrowingZone2>
    20ac:	88 23       	and	r24, r24
    20ae:	09 f4       	brne	.+2      	; 0x20b2 <_Z18gorockthegamefieldv+0x3b6>
    20b0:	43 c0       	rjmp	.+134    	; 0x2138 <_Z18gorockthegamefieldv+0x43c>
    20b2:	80 91 98 02 	lds	r24, 0x0298	; 0x800298 <task6>
    20b6:	81 11       	cpse	r24, r1
    20b8:	43 c0       	rjmp	.+134    	; 0x2140 <_Z18gorockthegamefieldv+0x444>
    20ba:	e2 ef       	ldi	r30, 0xF2	; 242
    20bc:	f2 e0       	ldi	r31, 0x02	; 2
    20be:	86 e6       	ldi	r24, 0x66	; 102
    20c0:	96 e6       	ldi	r25, 0x66	; 102
    20c2:	a6 e0       	ldi	r26, 0x06	; 6
    20c4:	b0 e4       	ldi	r27, 0x40	; 64
    20c6:	85 8b       	std	Z+21, r24	; 0x15
    20c8:	96 8b       	std	Z+22, r25	; 0x16
    20ca:	a7 8b       	std	Z+23, r26	; 0x17
    20cc:	b0 8f       	std	Z+24, r27	; 0x18
    20ce:	11 8e       	std	Z+25, r1	; 0x19
    20d0:	12 8e       	std	Z+26, r1	; 0x1a
    20d2:	13 8e       	std	Z+27, r1	; 0x1b
    20d4:	14 8e       	std	Z+28, r1	; 0x1c
    20d6:	80 e0       	ldi	r24, 0x00	; 0
    20d8:	90 e0       	ldi	r25, 0x00	; 0
    20da:	a8 e4       	ldi	r26, 0x48	; 72
    20dc:	b1 e4       	ldi	r27, 0x41	; 65
    20de:	85 8f       	std	Z+29, r24	; 0x1d
    20e0:	96 8f       	std	Z+30, r25	; 0x1e
    20e2:	a7 8f       	std	Z+31, r26	; 0x1f
    20e4:	b0 a3       	std	Z+32, r27	; 0x20
    20e6:	87 e0       	ldi	r24, 0x07	; 7
    20e8:	90 e0       	ldi	r25, 0x00	; 0
    20ea:	90 93 05 02 	sts	0x0205, r25	; 0x800205 <robotState+0x1>
    20ee:	80 93 04 02 	sts	0x0204, r24	; 0x800204 <robotState>
    20f2:	44 e6       	ldi	r20, 0x64	; 100
    20f4:	50 e0       	ldi	r21, 0x00	; 0
    20f6:	62 e0       	ldi	r22, 0x02	; 2
    20f8:	70 e0       	ldi	r23, 0x00	; 0
    20fa:	88 e0       	ldi	r24, 0x08	; 8
    20fc:	97 e0       	ldi	r25, 0x07	; 7
    20fe:	3b db       	rcall	.-2442   	; 0x1776 <_Z4movyiii>
    2100:	83 e8       	ldi	r24, 0x83	; 131
    2102:	92 e0       	ldi	r25, 0x02	; 2
    2104:	0e 94 de 00 	call	0x1bc	; 0x1bc <_ZN7encoder11getdistanceEv>
    2108:	0e 94 ce 1d 	call	0x3b9c	; 0x3b9c <__fixsfsi>
    210c:	9b 01       	movw	r18, r22
    210e:	77 23       	and	r23, r23
    2110:	24 f4       	brge	.+8      	; 0x211a <_Z18gorockthegamefieldv+0x41e>
    2112:	22 27       	eor	r18, r18
    2114:	33 27       	eor	r19, r19
    2116:	26 1b       	sub	r18, r22
    2118:	37 0b       	sbc	r19, r23
    211a:	20 3b       	cpi	r18, 0xB0	; 176
    211c:	34 40       	sbci	r19, 0x04	; 4
    211e:	0c f1       	brlt	.+66     	; 0x2162 <_Z18gorockthegamefieldv+0x466>
    2120:	78 94       	sei
    2122:	e8 e6       	ldi	r30, 0x68	; 104
    2124:	f0 e0       	ldi	r31, 0x00	; 0
    2126:	80 81       	ld	r24, Z
    2128:	84 60       	ori	r24, 0x04	; 4
    212a:	80 83       	st	Z, r24
    212c:	ed e6       	ldi	r30, 0x6D	; 109
    212e:	f0 e0       	ldi	r31, 0x00	; 0
    2130:	80 81       	ld	r24, Z
    2132:	80 68       	ori	r24, 0x80	; 128
    2134:	80 83       	st	Z, r24
    2136:	15 c0       	rjmp	.+42     	; 0x2162 <_Z18gorockthegamefieldv+0x466>
    2138:	80 91 98 02 	lds	r24, 0x0298	; 0x800298 <task6>
    213c:	88 23       	and	r24, r24
    213e:	89 f0       	breq	.+34     	; 0x2162 <_Z18gorockthegamefieldv+0x466>
    2140:	80 91 97 02 	lds	r24, 0x0297	; 0x800297 <task7>
    2144:	81 11       	cpse	r24, r1
    2146:	0d c0       	rjmp	.+26     	; 0x2162 <_Z18gorockthegamefieldv+0x466>
    2148:	80 91 9e 02 	lds	r24, 0x029E	; 0x80029e <where>
    214c:	90 91 9f 02 	lds	r25, 0x029F	; 0x80029f <where+0x1>
    2150:	06 97       	sbiw	r24, 0x06	; 6
    2152:	39 f4       	brne	.+14     	; 0x2162 <_Z18gorockthegamefieldv+0x466>
    2154:	80 91 04 02 	lds	r24, 0x0204	; 0x800204 <robotState>
    2158:	90 91 05 02 	lds	r25, 0x0205	; 0x800205 <robotState+0x1>
    215c:	07 97       	sbiw	r24, 0x07	; 7
    215e:	09 f4       	brne	.+2      	; 0x2162 <_Z18gorockthegamefieldv+0x466>
    2160:	6e c2       	rjmp	.+1244   	; 0x263e <__stack+0x43f>
    2162:	80 91 9e 02 	lds	r24, 0x029E	; 0x80029e <where>
    2166:	90 91 9f 02 	lds	r25, 0x029F	; 0x80029f <where+0x1>
    216a:	03 97       	sbiw	r24, 0x03	; 3
    216c:	d1 f4       	brne	.+52     	; 0x21a2 <_Z18gorockthegamefieldv+0x4a6>
    216e:	80 91 04 02 	lds	r24, 0x0204	; 0x800204 <robotState>
    2172:	90 91 05 02 	lds	r25, 0x0205	; 0x800205 <robotState+0x1>
    2176:	08 97       	sbiw	r24, 0x08	; 8
    2178:	a1 f4       	brne	.+40     	; 0x21a2 <_Z18gorockthegamefieldv+0x4a6>
    217a:	7d c2       	rjmp	.+1274   	; 0x2676 <__stack+0x477>
    217c:	80 91 a6 02 	lds	r24, 0x02A6	; 0x8002a6 <_b_Transmit_once>
    2180:	81 11       	cpse	r24, r1
    2182:	7e c2       	rjmp	.+1276   	; 0x2680 <__stack+0x481>
    2184:	0e 94 68 1c 	call	0x38d0	; 0x38d0 <_Z10uart3_getcv>
    2188:	80 93 93 02 	sts	0x0293, r24	; 0x800293 <receiveAck>
    218c:	87 36       	cpi	r24, 0x67	; 103
    218e:	49 f4       	brne	.+18     	; 0x21a2 <_Z18gorockthegamefieldv+0x4a6>
    2190:	81 e0       	ldi	r24, 0x01	; 1
    2192:	80 93 a1 02 	sts	0x02A1, r24	; 0x8002a1 <backtoLZ2>
    2196:	10 92 a3 02 	sts	0x02A3, r1	; 0x8002a3 <GoThrowingZone3>
    219a:	80 e2       	ldi	r24, 0x20	; 32
    219c:	80 93 93 02 	sts	0x0293, r24	; 0x800293 <receiveAck>
    21a0:	05 c0       	rjmp	.+10     	; 0x21ac <_Z18gorockthegamefieldv+0x4b0>
    21a2:	80 91 a1 02 	lds	r24, 0x02A1	; 0x8002a1 <backtoLZ2>
    21a6:	88 23       	and	r24, r24
    21a8:	09 f4       	brne	.+2      	; 0x21ac <_Z18gorockthegamefieldv+0x4b0>
    21aa:	76 c0       	rjmp	.+236    	; 0x2298 <__stack+0x99>
    21ac:	80 91 98 02 	lds	r24, 0x0298	; 0x800298 <task6>
    21b0:	88 23       	and	r24, r24
    21b2:	09 f4       	brne	.+2      	; 0x21b6 <_Z18gorockthegamefieldv+0x4ba>
    21b4:	71 c0       	rjmp	.+226    	; 0x2298 <__stack+0x99>
    21b6:	80 91 97 02 	lds	r24, 0x0297	; 0x800297 <task7>
    21ba:	81 11       	cpse	r24, r1
    21bc:	71 c0       	rjmp	.+226    	; 0x22a0 <__stack+0xa1>
    21be:	e2 ef       	ldi	r30, 0xF2	; 242
    21c0:	f2 e0       	ldi	r31, 0x02	; 2
    21c2:	86 e6       	ldi	r24, 0x66	; 102
    21c4:	96 e6       	ldi	r25, 0x66	; 102
    21c6:	a6 e0       	ldi	r26, 0x06	; 6
    21c8:	b0 e4       	ldi	r27, 0x40	; 64
    21ca:	85 8b       	std	Z+21, r24	; 0x15
    21cc:	96 8b       	std	Z+22, r25	; 0x16
    21ce:	a7 8b       	std	Z+23, r26	; 0x17
    21d0:	b0 8f       	std	Z+24, r27	; 0x18
    21d2:	11 8e       	std	Z+25, r1	; 0x19
    21d4:	12 8e       	std	Z+26, r1	; 0x1a
    21d6:	13 8e       	std	Z+27, r1	; 0x1b
    21d8:	14 8e       	std	Z+28, r1	; 0x1c
    21da:	80 e0       	ldi	r24, 0x00	; 0
    21dc:	90 e0       	ldi	r25, 0x00	; 0
    21de:	a8 e4       	ldi	r26, 0x48	; 72
    21e0:	b1 e4       	ldi	r27, 0x41	; 65
    21e2:	85 8f       	std	Z+29, r24	; 0x1d
    21e4:	96 8f       	std	Z+30, r25	; 0x1e
    21e6:	a7 8f       	std	Z+31, r26	; 0x1f
    21e8:	b0 a3       	std	Z+32, r27	; 0x20
    21ea:	80 91 94 02 	lds	r24, 0x0294	; 0x800294 <xJunctionMeetFromTZ2>
    21ee:	81 11       	cpse	r24, r1
    21f0:	2a c0       	rjmp	.+84     	; 0x2246 <__stack+0x47>
    21f2:	40 e5       	ldi	r20, 0x50	; 80
    21f4:	50 e0       	ldi	r21, 0x00	; 0
    21f6:	62 e0       	ldi	r22, 0x02	; 2
    21f8:	70 e0       	ldi	r23, 0x00	; 0
    21fa:	86 e2       	ldi	r24, 0x26	; 38
    21fc:	92 e0       	ldi	r25, 0x02	; 2
    21fe:	7e d8       	rcall	.-3844   	; 0x12fc <_Z4movxiii>
    2200:	87 e0       	ldi	r24, 0x07	; 7
    2202:	90 e0       	ldi	r25, 0x00	; 0
    2204:	90 93 05 02 	sts	0x0205, r25	; 0x800205 <robotState+0x1>
    2208:	80 93 04 02 	sts	0x0204, r24	; 0x800204 <robotState>
    220c:	8b e8       	ldi	r24, 0x8B	; 139
    220e:	92 e0       	ldi	r25, 0x02	; 2
    2210:	0e 94 de 00 	call	0x1bc	; 0x1bc <_ZN7encoder11getdistanceEv>
    2214:	0e 94 ce 1d 	call	0x3b9c	; 0x3b9c <__fixsfsi>
    2218:	9b 01       	movw	r18, r22
    221a:	77 23       	and	r23, r23
    221c:	24 f4       	brge	.+8      	; 0x2226 <__stack+0x27>
    221e:	22 27       	eor	r18, r18
    2220:	33 27       	eor	r19, r19
    2222:	26 1b       	sub	r18, r22
    2224:	37 0b       	sbc	r19, r23
    2226:	20 39       	cpi	r18, 0x90	; 144
    2228:	31 40       	sbci	r19, 0x01	; 1
    222a:	0c f4       	brge	.+2      	; 0x222e <__stack+0x2f>
    222c:	46 c0       	rjmp	.+140    	; 0x22ba <__stack+0xbb>
    222e:	78 94       	sei
    2230:	e8 e6       	ldi	r30, 0x68	; 104
    2232:	f0 e0       	ldi	r31, 0x00	; 0
    2234:	80 81       	ld	r24, Z
    2236:	81 60       	ori	r24, 0x01	; 1
    2238:	80 83       	st	Z, r24
    223a:	eb e6       	ldi	r30, 0x6B	; 107
    223c:	f0 e0       	ldi	r31, 0x00	; 0
    223e:	80 81       	ld	r24, Z
    2240:	80 61       	ori	r24, 0x10	; 16
    2242:	80 83       	st	Z, r24
    2244:	3a c0       	rjmp	.+116    	; 0x22ba <__stack+0xbb>
    2246:	44 e6       	ldi	r20, 0x64	; 100
    2248:	50 e0       	ldi	r21, 0x00	; 0
    224a:	63 e0       	ldi	r22, 0x03	; 3
    224c:	70 e0       	ldi	r23, 0x00	; 0
    224e:	88 e0       	ldi	r24, 0x08	; 8
    2250:	97 e0       	ldi	r25, 0x07	; 7
    2252:	91 da       	rcall	.-2782   	; 0x1776 <_Z4movyiii>
    2254:	87 e0       	ldi	r24, 0x07	; 7
    2256:	90 e0       	ldi	r25, 0x00	; 0
    2258:	90 93 05 02 	sts	0x0205, r25	; 0x800205 <robotState+0x1>
    225c:	80 93 04 02 	sts	0x0204, r24	; 0x800204 <robotState>
    2260:	83 e8       	ldi	r24, 0x83	; 131
    2262:	92 e0       	ldi	r25, 0x02	; 2
    2264:	0e 94 de 00 	call	0x1bc	; 0x1bc <_ZN7encoder11getdistanceEv>
    2268:	0e 94 ce 1d 	call	0x3b9c	; 0x3b9c <__fixsfsi>
    226c:	9b 01       	movw	r18, r22
    226e:	77 23       	and	r23, r23
    2270:	24 f4       	brge	.+8      	; 0x227a <__stack+0x7b>
    2272:	22 27       	eor	r18, r18
    2274:	33 27       	eor	r19, r19
    2276:	26 1b       	sub	r18, r22
    2278:	37 0b       	sbc	r19, r23
    227a:	20 3b       	cpi	r18, 0xB0	; 176
    227c:	34 40       	sbci	r19, 0x04	; 4
    227e:	ec f0       	brlt	.+58     	; 0x22ba <__stack+0xbb>
    2280:	78 94       	sei
    2282:	e8 e6       	ldi	r30, 0x68	; 104
    2284:	f0 e0       	ldi	r31, 0x00	; 0
    2286:	80 81       	ld	r24, Z
    2288:	84 60       	ori	r24, 0x04	; 4
    228a:	80 83       	st	Z, r24
    228c:	ed e6       	ldi	r30, 0x6D	; 109
    228e:	f0 e0       	ldi	r31, 0x00	; 0
    2290:	80 81       	ld	r24, Z
    2292:	80 68       	ori	r24, 0x80	; 128
    2294:	80 83       	st	Z, r24
    2296:	11 c0       	rjmp	.+34     	; 0x22ba <__stack+0xbb>
    2298:	80 91 97 02 	lds	r24, 0x0297	; 0x800297 <task7>
    229c:	88 23       	and	r24, r24
    229e:	69 f0       	breq	.+26     	; 0x22ba <__stack+0xbb>
    22a0:	80 91 04 02 	lds	r24, 0x0204	; 0x800204 <robotState>
    22a4:	90 91 05 02 	lds	r25, 0x0205	; 0x800205 <robotState+0x1>
    22a8:	07 97       	sbiw	r24, 0x07	; 7
    22aa:	39 f4       	brne	.+14     	; 0x22ba <__stack+0xbb>
    22ac:	80 91 9e 02 	lds	r24, 0x029E	; 0x80029e <where>
    22b0:	90 91 9f 02 	lds	r25, 0x029F	; 0x80029f <where+0x1>
    22b4:	03 97       	sbiw	r24, 0x03	; 3
    22b6:	09 f4       	brne	.+2      	; 0x22ba <__stack+0xbb>
    22b8:	f1 c1       	rjmp	.+994    	; 0x269c <__stack+0x49d>
    22ba:	80 91 a3 02 	lds	r24, 0x02A3	; 0x8002a3 <GoThrowingZone3>
    22be:	88 23       	and	r24, r24
    22c0:	09 f4       	brne	.+2      	; 0x22c4 <__stack+0xc5>
    22c2:	48 c0       	rjmp	.+144    	; 0x2354 <__stack+0x155>
    22c4:	80 91 96 02 	lds	r24, 0x0296	; 0x800296 <task8>
    22c8:	81 11       	cpse	r24, r1
    22ca:	48 c0       	rjmp	.+144    	; 0x235c <__stack+0x15d>
    22cc:	e2 ef       	ldi	r30, 0xF2	; 242
    22ce:	f2 e0       	ldi	r31, 0x02	; 2
    22d0:	86 e6       	ldi	r24, 0x66	; 102
    22d2:	96 e6       	ldi	r25, 0x66	; 102
    22d4:	a6 e0       	ldi	r26, 0x06	; 6
    22d6:	b0 e4       	ldi	r27, 0x40	; 64
    22d8:	85 8b       	std	Z+21, r24	; 0x15
    22da:	96 8b       	std	Z+22, r25	; 0x16
    22dc:	a7 8b       	std	Z+23, r26	; 0x17
    22de:	b0 8f       	std	Z+24, r27	; 0x18
    22e0:	11 8e       	std	Z+25, r1	; 0x19
    22e2:	12 8e       	std	Z+26, r1	; 0x1a
    22e4:	13 8e       	std	Z+27, r1	; 0x1b
    22e6:	14 8e       	std	Z+28, r1	; 0x1c
    22e8:	80 e0       	ldi	r24, 0x00	; 0
    22ea:	90 e0       	ldi	r25, 0x00	; 0
    22ec:	a8 e4       	ldi	r26, 0x48	; 72
    22ee:	b1 e4       	ldi	r27, 0x41	; 65
    22f0:	85 8f       	std	Z+29, r24	; 0x1d
    22f2:	96 8f       	std	Z+30, r25	; 0x1e
    22f4:	a7 8f       	std	Z+31, r26	; 0x1f
    22f6:	b0 a3       	std	Z+32, r27	; 0x20
    22f8:	46 e9       	ldi	r20, 0x96	; 150
    22fa:	50 e0       	ldi	r21, 0x00	; 0
    22fc:	62 e0       	ldi	r22, 0x02	; 2
    22fe:	70 e0       	ldi	r23, 0x00	; 0
    2300:	80 ec       	ldi	r24, 0xC0	; 192
    2302:	92 e1       	ldi	r25, 0x12	; 18
    2304:	38 da       	rcall	.-2960   	; 0x1776 <_Z4movyiii>
    2306:	87 e0       	ldi	r24, 0x07	; 7
    2308:	90 e0       	ldi	r25, 0x00	; 0
    230a:	90 93 05 02 	sts	0x0205, r25	; 0x800205 <robotState+0x1>
    230e:	80 93 04 02 	sts	0x0204, r24	; 0x800204 <robotState>
    2312:	83 e8       	ldi	r24, 0x83	; 131
    2314:	92 e0       	ldi	r25, 0x02	; 2
    2316:	0e 94 de 00 	call	0x1bc	; 0x1bc <_ZN7encoder11getdistanceEv>
    231a:	0e 94 ce 1d 	call	0x3b9c	; 0x3b9c <__fixsfsi>
    231e:	9b 01       	movw	r18, r22
    2320:	77 23       	and	r23, r23
    2322:	24 f4       	brge	.+8      	; 0x232c <__stack+0x12d>
    2324:	22 27       	eor	r18, r18
    2326:	33 27       	eor	r19, r19
    2328:	26 1b       	sub	r18, r22
    232a:	37 0b       	sbc	r19, r23
    232c:	20 3a       	cpi	r18, 0xA0	; 160
    232e:	3f 40       	sbci	r19, 0x0F	; 15
    2330:	0c f4       	brge	.+2      	; 0x2334 <__stack+0x135>
    2332:	3d c0       	rjmp	.+122    	; 0x23ae <__stack+0x1af>
    2334:	78 94       	sei
    2336:	e8 e6       	ldi	r30, 0x68	; 104
    2338:	f0 e0       	ldi	r31, 0x00	; 0
    233a:	80 81       	ld	r24, Z
    233c:	84 60       	ori	r24, 0x04	; 4
    233e:	80 83       	st	Z, r24
    2340:	ed e6       	ldi	r30, 0x6D	; 109
    2342:	f0 e0       	ldi	r31, 0x00	; 0
    2344:	80 81       	ld	r24, Z
    2346:	80 68       	ori	r24, 0x80	; 128
    2348:	80 83       	st	Z, r24
    234a:	8f e3       	ldi	r24, 0x3F	; 63
    234c:	92 e0       	ldi	r25, 0x02	; 2
    234e:	0e 94 fc 1a 	call	0x35f8	; 0x35f8 <_Z10uart0_putsPKc>
    2352:	2d c0       	rjmp	.+90     	; 0x23ae <__stack+0x1af>
    2354:	80 91 96 02 	lds	r24, 0x0296	; 0x800296 <task8>
    2358:	88 23       	and	r24, r24
    235a:	49 f1       	breq	.+82     	; 0x23ae <__stack+0x1af>
    235c:	80 91 9e 02 	lds	r24, 0x029E	; 0x80029e <where>
    2360:	90 91 9f 02 	lds	r25, 0x029F	; 0x80029f <where+0x1>
    2364:	06 97       	sbiw	r24, 0x06	; 6
    2366:	09 f0       	breq	.+2      	; 0x236a <__stack+0x16b>
    2368:	07 c2       	rjmp	.+1038   	; 0x2778 <__stack+0x579>
    236a:	80 91 04 02 	lds	r24, 0x0204	; 0x800204 <robotState>
    236e:	90 91 05 02 	lds	r25, 0x0205	; 0x800205 <robotState+0x1>
    2372:	07 97       	sbiw	r24, 0x07	; 7
    2374:	09 f0       	breq	.+2      	; 0x2378 <__stack+0x179>
    2376:	00 c2       	rjmp	.+1024   	; 0x2778 <__stack+0x579>
    2378:	b4 c1       	rjmp	.+872    	; 0x26e2 <__stack+0x4e3>
    237a:	80 91 04 02 	lds	r24, 0x0204	; 0x800204 <robotState>
    237e:	90 91 05 02 	lds	r25, 0x0205	; 0x800205 <robotState+0x1>
    2382:	08 97       	sbiw	r24, 0x08	; 8
    2384:	a1 f4       	brne	.+40     	; 0x23ae <__stack+0x1af>
    2386:	cb c1       	rjmp	.+918    	; 0x271e <__stack+0x51f>
    2388:	80 91 a6 02 	lds	r24, 0x02A6	; 0x8002a6 <_b_Transmit_once>
    238c:	81 11       	cpse	r24, r1
    238e:	cc c1       	rjmp	.+920    	; 0x2728 <__stack+0x529>
    2390:	0e 94 68 1c 	call	0x38d0	; 0x38d0 <_Z10uart3_getcv>
    2394:	80 93 93 02 	sts	0x0293, r24	; 0x800293 <receiveAck>
    2398:	87 36       	cpi	r24, 0x67	; 103
    239a:	49 f4       	brne	.+18     	; 0x23ae <__stack+0x1af>
    239c:	81 e0       	ldi	r24, 0x01	; 1
    239e:	80 93 a1 02 	sts	0x02A1, r24	; 0x8002a1 <backtoLZ2>
    23a2:	10 92 a3 02 	sts	0x02A3, r1	; 0x8002a3 <GoThrowingZone3>
    23a6:	80 e2       	ldi	r24, 0x20	; 32
    23a8:	80 93 93 02 	sts	0x0293, r24	; 0x800293 <receiveAck>
    23ac:	05 c0       	rjmp	.+10     	; 0x23b8 <__stack+0x1b9>
    23ae:	80 91 a1 02 	lds	r24, 0x02A1	; 0x8002a1 <backtoLZ2>
    23b2:	88 23       	and	r24, r24
    23b4:	09 f4       	brne	.+2      	; 0x23b8 <__stack+0x1b9>
    23b6:	49 c0       	rjmp	.+146    	; 0x244a <__stack+0x24b>
    23b8:	80 91 96 02 	lds	r24, 0x0296	; 0x800296 <task8>
    23bc:	88 23       	and	r24, r24
    23be:	09 f4       	brne	.+2      	; 0x23c2 <__stack+0x1c3>
    23c0:	44 c0       	rjmp	.+136    	; 0x244a <__stack+0x24b>
    23c2:	80 91 95 02 	lds	r24, 0x0295	; 0x800295 <task9>
    23c6:	81 11       	cpse	r24, r1
    23c8:	45 c0       	rjmp	.+138    	; 0x2454 <__stack+0x255>
    23ca:	e2 ef       	ldi	r30, 0xF2	; 242
    23cc:	f2 e0       	ldi	r31, 0x02	; 2
    23ce:	86 e6       	ldi	r24, 0x66	; 102
    23d0:	96 e6       	ldi	r25, 0x66	; 102
    23d2:	a6 e0       	ldi	r26, 0x06	; 6
    23d4:	b0 e4       	ldi	r27, 0x40	; 64
    23d6:	85 8b       	std	Z+21, r24	; 0x15
    23d8:	96 8b       	std	Z+22, r25	; 0x16
    23da:	a7 8b       	std	Z+23, r26	; 0x17
    23dc:	b0 8f       	std	Z+24, r27	; 0x18
    23de:	11 8e       	std	Z+25, r1	; 0x19
    23e0:	12 8e       	std	Z+26, r1	; 0x1a
    23e2:	13 8e       	std	Z+27, r1	; 0x1b
    23e4:	14 8e       	std	Z+28, r1	; 0x1c
    23e6:	80 e0       	ldi	r24, 0x00	; 0
    23e8:	90 e0       	ldi	r25, 0x00	; 0
    23ea:	a8 e4       	ldi	r26, 0x48	; 72
    23ec:	b1 e4       	ldi	r27, 0x41	; 65
    23ee:	85 8f       	std	Z+29, r24	; 0x1d
    23f0:	96 8f       	std	Z+30, r25	; 0x1e
    23f2:	a7 8f       	std	Z+31, r26	; 0x1f
    23f4:	b0 a3       	std	Z+32, r27	; 0x20
    23f6:	46 e9       	ldi	r20, 0x96	; 150
    23f8:	50 e0       	ldi	r21, 0x00	; 0
    23fa:	63 e0       	ldi	r22, 0x03	; 3
    23fc:	70 e0       	ldi	r23, 0x00	; 0
    23fe:	8c ee       	ldi	r24, 0xEC	; 236
    2400:	93 e1       	ldi	r25, 0x13	; 19
    2402:	b9 d9       	rcall	.-3214   	; 0x1776 <_Z4movyiii>
    2404:	87 e0       	ldi	r24, 0x07	; 7
    2406:	90 e0       	ldi	r25, 0x00	; 0
    2408:	90 93 05 02 	sts	0x0205, r25	; 0x800205 <robotState+0x1>
    240c:	80 93 04 02 	sts	0x0204, r24	; 0x800204 <robotState>
    2410:	83 e8       	ldi	r24, 0x83	; 131
    2412:	92 e0       	ldi	r25, 0x02	; 2
    2414:	0e 94 de 00 	call	0x1bc	; 0x1bc <_ZN7encoder11getdistanceEv>
    2418:	0e 94 ce 1d 	call	0x3b9c	; 0x3b9c <__fixsfsi>
    241c:	9b 01       	movw	r18, r22
    241e:	77 23       	and	r23, r23
    2420:	24 f4       	brge	.+8      	; 0x242a <__stack+0x22b>
    2422:	22 27       	eor	r18, r18
    2424:	33 27       	eor	r19, r19
    2426:	26 1b       	sub	r18, r22
    2428:	37 0b       	sbc	r19, r23
    242a:	20 3a       	cpi	r18, 0xA0	; 160
    242c:	3f 40       	sbci	r19, 0x0F	; 15
    242e:	0c f4       	brge	.+2      	; 0x2432 <__stack+0x233>
    2430:	ab c1       	rjmp	.+854    	; 0x2788 <__stack+0x589>
    2432:	78 94       	sei
    2434:	e8 e6       	ldi	r30, 0x68	; 104
    2436:	f0 e0       	ldi	r31, 0x00	; 0
    2438:	80 81       	ld	r24, Z
    243a:	84 60       	ori	r24, 0x04	; 4
    243c:	80 83       	st	Z, r24
    243e:	ed e6       	ldi	r30, 0x6D	; 109
    2440:	f0 e0       	ldi	r31, 0x00	; 0
    2442:	80 81       	ld	r24, Z
    2444:	80 68       	ori	r24, 0x80	; 128
    2446:	80 83       	st	Z, r24
    2448:	08 95       	ret
    244a:	80 91 95 02 	lds	r24, 0x0295	; 0x800295 <task9>
    244e:	88 23       	and	r24, r24
    2450:	09 f4       	brne	.+2      	; 0x2454 <__stack+0x255>
    2452:	9a c1       	rjmp	.+820    	; 0x2788 <__stack+0x589>
    2454:	80 91 04 02 	lds	r24, 0x0204	; 0x800204 <robotState>
    2458:	90 91 05 02 	lds	r25, 0x0205	; 0x800205 <robotState+0x1>
    245c:	07 97       	sbiw	r24, 0x07	; 7
    245e:	09 f0       	breq	.+2      	; 0x2462 <__stack+0x263>
    2460:	93 c1       	rjmp	.+806    	; 0x2788 <__stack+0x589>
    2462:	80 91 9e 02 	lds	r24, 0x029E	; 0x80029e <where>
    2466:	90 91 9f 02 	lds	r25, 0x029F	; 0x80029f <where+0x1>
    246a:	04 97       	sbiw	r24, 0x04	; 4
    246c:	09 f0       	breq	.+2      	; 0x2470 <__stack+0x271>
    246e:	8c c1       	rjmp	.+792    	; 0x2788 <__stack+0x589>
    2470:	61 c1       	rjmp	.+706    	; 0x2734 <__stack+0x535>
    2472:	80 91 9a 02 	lds	r24, 0x029A	; 0x80029a <task4>
    2476:	81 11       	cpse	r24, r1
    2478:	56 cc       	rjmp	.-1876   	; 0x1d26 <_Z18gorockthegamefieldv+0x2a>
    247a:	78 cc       	rjmp	.-1808   	; 0x1d6c <_Z18gorockthegamefieldv+0x70>
    247c:	e2 ef       	ldi	r30, 0xF2	; 242
    247e:	f2 e0       	ldi	r31, 0x02	; 2
    2480:	86 e6       	ldi	r24, 0x66	; 102
    2482:	96 e6       	ldi	r25, 0x66	; 102
    2484:	a6 e0       	ldi	r26, 0x06	; 6
    2486:	b0 e4       	ldi	r27, 0x40	; 64
    2488:	85 8b       	std	Z+21, r24	; 0x15
    248a:	96 8b       	std	Z+22, r25	; 0x16
    248c:	a7 8b       	std	Z+23, r26	; 0x17
    248e:	b0 8f       	std	Z+24, r27	; 0x18
    2490:	11 8e       	std	Z+25, r1	; 0x19
    2492:	12 8e       	std	Z+26, r1	; 0x1a
    2494:	13 8e       	std	Z+27, r1	; 0x1b
    2496:	14 8e       	std	Z+28, r1	; 0x1c
    2498:	80 e0       	ldi	r24, 0x00	; 0
    249a:	90 e0       	ldi	r25, 0x00	; 0
    249c:	a8 e4       	ldi	r26, 0x48	; 72
    249e:	b1 e4       	ldi	r27, 0x41	; 65
    24a0:	85 8f       	std	Z+29, r24	; 0x1d
    24a2:	96 8f       	std	Z+30, r25	; 0x1e
    24a4:	a7 8f       	std	Z+31, r26	; 0x1f
    24a6:	b0 a3       	std	Z+32, r27	; 0x20
    24a8:	46 e9       	ldi	r20, 0x96	; 150
    24aa:	50 e0       	ldi	r21, 0x00	; 0
    24ac:	62 e0       	ldi	r22, 0x02	; 2
    24ae:	70 e0       	ldi	r23, 0x00	; 0
    24b0:	88 ef       	ldi	r24, 0xF8	; 248
    24b2:	91 e1       	ldi	r25, 0x11	; 17
    24b4:	0e 94 7e 09 	call	0x12fc	; 0x12fc <_Z4movxiii>
    24b8:	87 e0       	ldi	r24, 0x07	; 7
    24ba:	90 e0       	ldi	r25, 0x00	; 0
    24bc:	90 93 05 02 	sts	0x0205, r25	; 0x800205 <robotState+0x1>
    24c0:	80 93 04 02 	sts	0x0204, r24	; 0x800204 <robotState>
    24c4:	8b e8       	ldi	r24, 0x8B	; 139
    24c6:	92 e0       	ldi	r25, 0x02	; 2
    24c8:	0e 94 de 00 	call	0x1bc	; 0x1bc <_ZN7encoder11getdistanceEv>
    24cc:	0e 94 ce 1d 	call	0x3b9c	; 0x3b9c <__fixsfsi>
    24d0:	9b 01       	movw	r18, r22
    24d2:	77 23       	and	r23, r23
    24d4:	24 f4       	brge	.+8      	; 0x24de <__stack+0x2df>
    24d6:	22 27       	eor	r18, r18
    24d8:	33 27       	eor	r19, r19
    24da:	26 1b       	sub	r18, r22
    24dc:	37 0b       	sbc	r19, r23
    24de:	22 3b       	cpi	r18, 0xB2	; 178
    24e0:	31 41       	sbci	r19, 0x11	; 17
    24e2:	0c f0       	brlt	.+2      	; 0x24e6 <__stack+0x2e7>
    24e4:	76 cc       	rjmp	.-1812   	; 0x1dd2 <_Z18gorockthegamefieldv+0xd6>
    24e6:	cf cc       	rjmp	.-1634   	; 0x1e86 <_Z18gorockthegamefieldv+0x18a>
    24e8:	87 e0       	ldi	r24, 0x07	; 7
    24ea:	90 e0       	ldi	r25, 0x00	; 0
    24ec:	90 93 05 02 	sts	0x0205, r25	; 0x800205 <robotState+0x1>
    24f0:	80 93 04 02 	sts	0x0204, r24	; 0x800204 <robotState>
    24f4:	e2 ef       	ldi	r30, 0xF2	; 242
    24f6:	f2 e0       	ldi	r31, 0x02	; 2
    24f8:	86 e6       	ldi	r24, 0x66	; 102
    24fa:	96 e6       	ldi	r25, 0x66	; 102
    24fc:	a6 e0       	ldi	r26, 0x06	; 6
    24fe:	b0 e4       	ldi	r27, 0x40	; 64
    2500:	85 8b       	std	Z+21, r24	; 0x15
    2502:	96 8b       	std	Z+22, r25	; 0x16
    2504:	a7 8b       	std	Z+23, r26	; 0x17
    2506:	b0 8f       	std	Z+24, r27	; 0x18
    2508:	11 8e       	std	Z+25, r1	; 0x19
    250a:	12 8e       	std	Z+26, r1	; 0x1a
    250c:	13 8e       	std	Z+27, r1	; 0x1b
    250e:	14 8e       	std	Z+28, r1	; 0x1c
    2510:	80 e0       	ldi	r24, 0x00	; 0
    2512:	90 e0       	ldi	r25, 0x00	; 0
    2514:	a8 e4       	ldi	r26, 0x48	; 72
    2516:	b1 e4       	ldi	r27, 0x41	; 65
    2518:	85 8f       	std	Z+29, r24	; 0x1d
    251a:	96 8f       	std	Z+30, r25	; 0x1e
    251c:	a7 8f       	std	Z+31, r26	; 0x1f
    251e:	b0 a3       	std	Z+32, r27	; 0x20
    2520:	44 e6       	ldi	r20, 0x64	; 100
    2522:	50 e0       	ldi	r21, 0x00	; 0
    2524:	62 e0       	ldi	r22, 0x02	; 2
    2526:	70 e0       	ldi	r23, 0x00	; 0
    2528:	88 e5       	ldi	r24, 0x58	; 88
    252a:	97 e0       	ldi	r25, 0x07	; 7
    252c:	24 d9       	rcall	.-3512   	; 0x1776 <_Z4movyiii>
    252e:	83 e8       	ldi	r24, 0x83	; 131
    2530:	92 e0       	ldi	r25, 0x02	; 2
    2532:	0e 94 de 00 	call	0x1bc	; 0x1bc <_ZN7encoder11getdistanceEv>
    2536:	0e 94 ce 1d 	call	0x3b9c	; 0x3b9c <__fixsfsi>
    253a:	9b 01       	movw	r18, r22
    253c:	77 23       	and	r23, r23
    253e:	24 f4       	brge	.+8      	; 0x2548 <__stack+0x349>
    2540:	22 27       	eor	r18, r18
    2542:	33 27       	eor	r19, r19
    2544:	26 1b       	sub	r18, r22
    2546:	37 0b       	sbc	r19, r23
    2548:	20 34       	cpi	r18, 0x40	; 64
    254a:	36 40       	sbci	r19, 0x06	; 6
    254c:	0c f0       	brlt	.+2      	; 0x2550 <__stack+0x351>
    254e:	b5 cc       	rjmp	.-1686   	; 0x1eba <_Z18gorockthegamefieldv+0x1be>
    2550:	d1 cc       	rjmp	.-1630   	; 0x1ef4 <_Z18gorockthegamefieldv+0x1f8>
    2552:	80 91 9b 02 	lds	r24, 0x029B	; 0x80029b <task3>
    2556:	88 23       	and	r24, r24
    2558:	09 f4       	brne	.+2      	; 0x255c <__stack+0x35d>
    255a:	cc cc       	rjmp	.-1640   	; 0x1ef4 <_Z18gorockthegamefieldv+0x1f8>
    255c:	ba cc       	rjmp	.-1676   	; 0x1ed2 <_Z18gorockthegamefieldv+0x1d6>
    255e:	ed e6       	ldi	r30, 0x6D	; 109
    2560:	f0 e0       	ldi	r31, 0x00	; 0
    2562:	80 81       	ld	r24, Z
    2564:	8f 77       	andi	r24, 0x7F	; 127
    2566:	80 83       	st	Z, r24
    2568:	8c e4       	ldi	r24, 0x4C	; 76
    256a:	92 e0       	ldi	r25, 0x02	; 2
    256c:	0e 94 fc 1a 	call	0x35f8	; 0x35f8 <_Z10uart0_putsPKc>
    2570:	0e 94 f2 04 	call	0x9e4	; 0x9e4 <_Z10BrakeMotorv>
    2574:	82 e0       	ldi	r24, 0x02	; 2
    2576:	90 e0       	ldi	r25, 0x00	; 0
    2578:	90 93 9f 02 	sts	0x029F, r25	; 0x80029f <where+0x1>
    257c:	80 93 9e 02 	sts	0x029E, r24	; 0x80029e <where>
    2580:	10 92 8c 02 	sts	0x028C, r1	; 0x80028c <encoderX+0x1>
    2584:	10 92 8b 02 	sts	0x028B, r1	; 0x80028b <encoderX>
    2588:	10 92 84 02 	sts	0x0284, r1	; 0x800284 <encoderY+0x1>
    258c:	10 92 83 02 	sts	0x0283, r1	; 0x800283 <encoderY>
    2590:	88 e0       	ldi	r24, 0x08	; 8
    2592:	90 e0       	ldi	r25, 0x00	; 0
    2594:	90 93 05 02 	sts	0x0205, r25	; 0x800205 <robotState+0x1>
    2598:	80 93 04 02 	sts	0x0204, r24	; 0x800204 <robotState>
    259c:	ab cc       	rjmp	.-1706   	; 0x1ef4 <_Z18gorockthegamefieldv+0x1f8>
    259e:	8b da       	rcall	.-2794   	; 0x1ab6 <_Z12holdpositionv>
    25a0:	80 91 a6 02 	lds	r24, 0x02A6	; 0x8002a6 <_b_Transmit_once>
    25a4:	88 23       	and	r24, r24
    25a6:	09 f4       	brne	.+2      	; 0x25aa <__stack+0x3ab>
    25a8:	ba cc       	rjmp	.-1676   	; 0x1f1e <_Z18gorockthegamefieldv+0x222>
    25aa:	b1 cc       	rjmp	.-1694   	; 0x1f0e <_Z18gorockthegamefieldv+0x212>
    25ac:	ed e6       	ldi	r30, 0x6D	; 109
    25ae:	f0 e0       	ldi	r31, 0x00	; 0
    25b0:	80 81       	ld	r24, Z
    25b2:	8f 77       	andi	r24, 0x7F	; 127
    25b4:	80 83       	st	Z, r24
    25b6:	85 e0       	ldi	r24, 0x05	; 5
    25b8:	90 e0       	ldi	r25, 0x00	; 0
    25ba:	90 93 9f 02 	sts	0x029F, r25	; 0x80029f <where+0x1>
    25be:	80 93 9e 02 	sts	0x029E, r24	; 0x80029e <where>
    25c2:	0e 94 f2 04 	call	0x9e4	; 0x9e4 <_Z10BrakeMotorv>
    25c6:	10 92 8c 02 	sts	0x028C, r1	; 0x80028c <encoderX+0x1>
    25ca:	10 92 8b 02 	sts	0x028B, r1	; 0x80028b <encoderX>
    25ce:	10 92 84 02 	sts	0x0284, r1	; 0x800284 <encoderY+0x1>
    25d2:	10 92 83 02 	sts	0x0283, r1	; 0x800283 <encoderY>
    25d6:	88 e0       	ldi	r24, 0x08	; 8
    25d8:	90 e0       	ldi	r25, 0x00	; 0
    25da:	90 93 05 02 	sts	0x0205, r25	; 0x800205 <robotState+0x1>
    25de:	80 93 04 02 	sts	0x0204, r24	; 0x800204 <robotState>
    25e2:	10 92 a9 02 	sts	0x02A9, r1	; 0x8002a9 <ShuttleCockGiven>
    25e6:	10 92 a7 02 	sts	0x02A7, r1	; 0x8002a7 <ShuttleCockArmGone>
    25ea:	10 92 a2 02 	sts	0x02A2, r1	; 0x8002a2 <backtoLZ1>
    25ee:	5c cd       	rjmp	.-1352   	; 0x20a8 <_Z18gorockthegamefieldv+0x3ac>
    25f0:	80 91 a0 02 	lds	r24, 0x02A0	; 0x8002a0 <gotoLZ2>
    25f4:	81 11       	cpse	r24, r1
    25f6:	04 cd       	rjmp	.-1528   	; 0x2000 <_Z18gorockthegamefieldv+0x304>
    25f8:	46 cd       	rjmp	.-1396   	; 0x2086 <_Z18gorockthegamefieldv+0x38a>
    25fa:	10 92 a0 02 	sts	0x02A0, r1	; 0x8002a0 <gotoLZ2>
    25fe:	eb e6       	ldi	r30, 0x6B	; 107
    2600:	f0 e0       	ldi	r31, 0x00	; 0
    2602:	80 81       	ld	r24, Z
    2604:	8f 7e       	andi	r24, 0xEF	; 239
    2606:	80 83       	st	Z, r24
    2608:	0e 94 f2 04 	call	0x9e4	; 0x9e4 <_Z10BrakeMotorv>
    260c:	86 e0       	ldi	r24, 0x06	; 6
    260e:	90 e0       	ldi	r25, 0x00	; 0
    2610:	90 93 9f 02 	sts	0x029F, r25	; 0x80029f <where+0x1>
    2614:	80 93 9e 02 	sts	0x029E, r24	; 0x80029e <where>
    2618:	88 e0       	ldi	r24, 0x08	; 8
    261a:	90 e0       	ldi	r25, 0x00	; 0
    261c:	90 93 05 02 	sts	0x0205, r25	; 0x800205 <robotState+0x1>
    2620:	80 93 04 02 	sts	0x0204, r24	; 0x800204 <robotState>
    2624:	10 92 8c 02 	sts	0x028C, r1	; 0x80028c <encoderX+0x1>
    2628:	10 92 8b 02 	sts	0x028B, r1	; 0x80028b <encoderX>
    262c:	10 92 84 02 	sts	0x0284, r1	; 0x800284 <encoderY+0x1>
    2630:	10 92 83 02 	sts	0x0283, r1	; 0x800283 <encoderY>
    2634:	10 92 a9 02 	sts	0x02A9, r1	; 0x8002a9 <ShuttleCockGiven>
    2638:	10 92 a7 02 	sts	0x02A7, r1	; 0x8002a7 <ShuttleCockArmGone>
    263c:	35 cd       	rjmp	.-1430   	; 0x20a8 <_Z18gorockthegamefieldv+0x3ac>
    263e:	83 e0       	ldi	r24, 0x03	; 3
    2640:	90 e0       	ldi	r25, 0x00	; 0
    2642:	90 93 9f 02 	sts	0x029F, r25	; 0x80029f <where+0x1>
    2646:	80 93 9e 02 	sts	0x029E, r24	; 0x80029e <where>
    264a:	ed e6       	ldi	r30, 0x6D	; 109
    264c:	f0 e0       	ldi	r31, 0x00	; 0
    264e:	80 81       	ld	r24, Z
    2650:	8f 77       	andi	r24, 0x7F	; 127
    2652:	80 83       	st	Z, r24
    2654:	10 92 8c 02 	sts	0x028C, r1	; 0x80028c <encoderX+0x1>
    2658:	10 92 8b 02 	sts	0x028B, r1	; 0x80028b <encoderX>
    265c:	10 92 84 02 	sts	0x0284, r1	; 0x800284 <encoderY+0x1>
    2660:	10 92 83 02 	sts	0x0283, r1	; 0x800283 <encoderY>
    2664:	88 e0       	ldi	r24, 0x08	; 8
    2666:	90 e0       	ldi	r25, 0x00	; 0
    2668:	90 93 05 02 	sts	0x0205, r25	; 0x800205 <robotState+0x1>
    266c:	80 93 04 02 	sts	0x0204, r24	; 0x800204 <robotState>
    2670:	0e 94 f2 04 	call	0x9e4	; 0x9e4 <_Z10BrakeMotorv>
    2674:	76 cd       	rjmp	.-1300   	; 0x2162 <_Z18gorockthegamefieldv+0x466>
    2676:	0e 94 13 0b 	call	0x1626	; 0x1626 <_Z21Goto_Fence_And_Detectv>
    267a:	81 11       	cpse	r24, r1
    267c:	7f cd       	rjmp	.-1282   	; 0x217c <_Z18gorockthegamefieldv+0x480>
    267e:	82 cd       	rjmp	.-1276   	; 0x2184 <_Z18gorockthegamefieldv+0x488>
    2680:	82 e3       	ldi	r24, 0x32	; 50
    2682:	0e 94 83 1c 	call	0x3906	; 0x3906 <_Z10uart3_putch>
    2686:	10 92 8c 02 	sts	0x028C, r1	; 0x80028c <encoderX+0x1>
    268a:	10 92 8b 02 	sts	0x028B, r1	; 0x80028b <encoderX>
    268e:	10 92 84 02 	sts	0x0284, r1	; 0x800284 <encoderY+0x1>
    2692:	10 92 83 02 	sts	0x0283, r1	; 0x800283 <encoderY>
    2696:	10 92 a6 02 	sts	0x02A6, r1	; 0x8002a6 <_b_Transmit_once>
    269a:	74 cd       	rjmp	.-1304   	; 0x2184 <_Z18gorockthegamefieldv+0x488>
    269c:	0c da       	rcall	.-3048   	; 0x1ab6 <_Z12holdpositionv>
    269e:	ed e6       	ldi	r30, 0x6D	; 109
    26a0:	f0 e0       	ldi	r31, 0x00	; 0
    26a2:	80 81       	ld	r24, Z
    26a4:	8f 77       	andi	r24, 0x7F	; 127
    26a6:	80 83       	st	Z, r24
    26a8:	0e 94 f2 04 	call	0x9e4	; 0x9e4 <_Z10BrakeMotorv>
    26ac:	10 92 8c 02 	sts	0x028C, r1	; 0x80028c <encoderX+0x1>
    26b0:	10 92 8b 02 	sts	0x028B, r1	; 0x80028b <encoderX>
    26b4:	10 92 84 02 	sts	0x0284, r1	; 0x800284 <encoderY+0x1>
    26b8:	10 92 83 02 	sts	0x0283, r1	; 0x800283 <encoderY>
    26bc:	86 e0       	ldi	r24, 0x06	; 6
    26be:	90 e0       	ldi	r25, 0x00	; 0
    26c0:	90 93 9f 02 	sts	0x029F, r25	; 0x80029f <where+0x1>
    26c4:	80 93 9e 02 	sts	0x029E, r24	; 0x80029e <where>
    26c8:	88 e0       	ldi	r24, 0x08	; 8
    26ca:	90 e0       	ldi	r25, 0x00	; 0
    26cc:	90 93 05 02 	sts	0x0205, r25	; 0x800205 <robotState+0x1>
    26d0:	80 93 04 02 	sts	0x0204, r24	; 0x800204 <robotState>
    26d4:	10 92 a9 02 	sts	0x02A9, r1	; 0x8002a9 <ShuttleCockGiven>
    26d8:	10 92 a7 02 	sts	0x02A7, r1	; 0x8002a7 <ShuttleCockArmGone>
    26dc:	10 92 a1 02 	sts	0x02A1, r1	; 0x8002a1 <backtoLZ2>
    26e0:	ec cd       	rjmp	.-1064   	; 0x22ba <__stack+0xbb>
    26e2:	ed e6       	ldi	r30, 0x6D	; 109
    26e4:	f0 e0       	ldi	r31, 0x00	; 0
    26e6:	80 81       	ld	r24, Z
    26e8:	8f 77       	andi	r24, 0x7F	; 127
    26ea:	80 83       	st	Z, r24
    26ec:	0e 94 f2 04 	call	0x9e4	; 0x9e4 <_Z10BrakeMotorv>
    26f0:	10 92 8c 02 	sts	0x028C, r1	; 0x80028c <encoderX+0x1>
    26f4:	10 92 8b 02 	sts	0x028B, r1	; 0x80028b <encoderX>
    26f8:	10 92 84 02 	sts	0x0284, r1	; 0x800284 <encoderY+0x1>
    26fc:	10 92 83 02 	sts	0x0283, r1	; 0x800283 <encoderY>
    2700:	88 e0       	ldi	r24, 0x08	; 8
    2702:	90 e0       	ldi	r25, 0x00	; 0
    2704:	90 93 05 02 	sts	0x0205, r25	; 0x800205 <robotState+0x1>
    2708:	80 93 04 02 	sts	0x0204, r24	; 0x800204 <robotState>
    270c:	10 92 a3 02 	sts	0x02A3, r1	; 0x8002a3 <GoThrowingZone3>
    2710:	84 e0       	ldi	r24, 0x04	; 4
    2712:	90 e0       	ldi	r25, 0x00	; 0
    2714:	90 93 9f 02 	sts	0x029F, r25	; 0x80029f <where+0x1>
    2718:	80 93 9e 02 	sts	0x029E, r24	; 0x80029e <where>
    271c:	48 ce       	rjmp	.-880    	; 0x23ae <__stack+0x1af>
    271e:	0e 94 13 0b 	call	0x1626	; 0x1626 <_Z21Goto_Fence_And_Detectv>
    2722:	81 11       	cpse	r24, r1
    2724:	31 ce       	rjmp	.-926    	; 0x2388 <__stack+0x189>
    2726:	34 ce       	rjmp	.-920    	; 0x2390 <__stack+0x191>
    2728:	83 e3       	ldi	r24, 0x33	; 51
    272a:	0e 94 83 1c 	call	0x3906	; 0x3906 <_Z10uart3_putch>
    272e:	10 92 a6 02 	sts	0x02A6, r1	; 0x8002a6 <_b_Transmit_once>
    2732:	2e ce       	rjmp	.-932    	; 0x2390 <__stack+0x191>
    2734:	ed e6       	ldi	r30, 0x6D	; 109
    2736:	f0 e0       	ldi	r31, 0x00	; 0
    2738:	80 81       	ld	r24, Z
    273a:	8f 77       	andi	r24, 0x7F	; 127
    273c:	80 83       	st	Z, r24
    273e:	0e 94 f2 04 	call	0x9e4	; 0x9e4 <_Z10BrakeMotorv>
    2742:	10 92 8c 02 	sts	0x028C, r1	; 0x80028c <encoderX+0x1>
    2746:	10 92 8b 02 	sts	0x028B, r1	; 0x80028b <encoderX>
    274a:	10 92 84 02 	sts	0x0284, r1	; 0x800284 <encoderY+0x1>
    274e:	10 92 83 02 	sts	0x0283, r1	; 0x800283 <encoderY>
    2752:	86 e0       	ldi	r24, 0x06	; 6
    2754:	90 e0       	ldi	r25, 0x00	; 0
    2756:	90 93 9f 02 	sts	0x029F, r25	; 0x80029f <where+0x1>
    275a:	80 93 9e 02 	sts	0x029E, r24	; 0x80029e <where>
    275e:	88 e0       	ldi	r24, 0x08	; 8
    2760:	90 e0       	ldi	r25, 0x00	; 0
    2762:	90 93 05 02 	sts	0x0205, r25	; 0x800205 <robotState+0x1>
    2766:	80 93 04 02 	sts	0x0204, r24	; 0x800204 <robotState>
    276a:	10 92 a9 02 	sts	0x02A9, r1	; 0x8002a9 <ShuttleCockGiven>
    276e:	10 92 a7 02 	sts	0x02A7, r1	; 0x8002a7 <ShuttleCockArmGone>
    2772:	10 92 a1 02 	sts	0x02A1, r1	; 0x8002a1 <backtoLZ2>
    2776:	08 95       	ret
    2778:	80 91 9e 02 	lds	r24, 0x029E	; 0x80029e <where>
    277c:	90 91 9f 02 	lds	r25, 0x029F	; 0x80029f <where+0x1>
    2780:	04 97       	sbiw	r24, 0x04	; 4
    2782:	09 f0       	breq	.+2      	; 0x2786 <__stack+0x587>
    2784:	14 ce       	rjmp	.-984    	; 0x23ae <__stack+0x1af>
    2786:	f9 cd       	rjmp	.-1038   	; 0x237a <__stack+0x17b>
    2788:	08 95       	ret

0000278a <__vector_9>:
    278a:	1f 92       	push	r1
    278c:	0f 92       	push	r0
    278e:	0f b6       	in	r0, 0x3f	; 63
    2790:	0f 92       	push	r0
    2792:	11 24       	eor	r1, r1
    2794:	0b b6       	in	r0, 0x3b	; 59
    2796:	0f 92       	push	r0
    2798:	2f 93       	push	r18
    279a:	3f 93       	push	r19
    279c:	4f 93       	push	r20
    279e:	5f 93       	push	r21
    27a0:	6f 93       	push	r22
    27a2:	7f 93       	push	r23
    27a4:	8f 93       	push	r24
    27a6:	9f 93       	push	r25
    27a8:	af 93       	push	r26
    27aa:	bf 93       	push	r27
    27ac:	ef 93       	push	r30
    27ae:	ff 93       	push	r31
    27b0:	80 91 9d 02 	lds	r24, 0x029D	; 0x80029d <task1>
    27b4:	81 11       	cpse	r24, r1
    27b6:	06 c0       	rjmp	.+12     	; 0x27c4 <__vector_9+0x3a>
    27b8:	81 e0       	ldi	r24, 0x01	; 1
    27ba:	80 93 9d 02 	sts	0x029D, r24	; 0x80029d <task1>
    27be:	80 93 47 04 	sts	0x0447, r24	; 0x800447 <FlagChangeSetpointCompass>
    27c2:	22 c0       	rjmp	.+68     	; 0x2808 <__vector_9+0x7e>
    27c4:	80 91 99 02 	lds	r24, 0x0299	; 0x800299 <task5>
    27c8:	81 11       	cpse	r24, r1
    27ca:	08 c0       	rjmp	.+16     	; 0x27dc <__vector_9+0x52>
    27cc:	81 e0       	ldi	r24, 0x01	; 1
    27ce:	80 93 99 02 	sts	0x0299, r24	; 0x800299 <task5>
    27d2:	80 93 47 04 	sts	0x0447, r24	; 0x800447 <FlagChangeSetpointCompass>
    27d6:	0e 94 f2 04 	call	0x9e4	; 0x9e4 <_Z10BrakeMotorv>
    27da:	16 c0       	rjmp	.+44     	; 0x2808 <__vector_9+0x7e>
    27dc:	80 91 94 02 	lds	r24, 0x0294	; 0x800294 <xJunctionMeetFromTZ2>
    27e0:	81 11       	cpse	r24, r1
    27e2:	12 c0       	rjmp	.+36     	; 0x2808 <__vector_9+0x7e>
    27e4:	81 e0       	ldi	r24, 0x01	; 1
    27e6:	80 93 94 02 	sts	0x0294, r24	; 0x800294 <xJunctionMeetFromTZ2>
    27ea:	0e 94 f2 04 	call	0x9e4	; 0x9e4 <_Z10BrakeMotorv>
    27ee:	eb e6       	ldi	r30, 0x6B	; 107
    27f0:	f0 e0       	ldi	r31, 0x00	; 0
    27f2:	80 81       	ld	r24, Z
    27f4:	8f 7e       	andi	r24, 0xEF	; 239
    27f6:	80 83       	st	Z, r24
    27f8:	10 92 8c 02 	sts	0x028C, r1	; 0x80028c <encoderX+0x1>
    27fc:	10 92 8b 02 	sts	0x028B, r1	; 0x80028b <encoderX>
    2800:	10 92 84 02 	sts	0x0284, r1	; 0x800284 <encoderY+0x1>
    2804:	10 92 83 02 	sts	0x0283, r1	; 0x800283 <encoderY>
    2808:	ff 91       	pop	r31
    280a:	ef 91       	pop	r30
    280c:	bf 91       	pop	r27
    280e:	af 91       	pop	r26
    2810:	9f 91       	pop	r25
    2812:	8f 91       	pop	r24
    2814:	7f 91       	pop	r23
    2816:	6f 91       	pop	r22
    2818:	5f 91       	pop	r21
    281a:	4f 91       	pop	r20
    281c:	3f 91       	pop	r19
    281e:	2f 91       	pop	r18
    2820:	0f 90       	pop	r0
    2822:	0b be       	out	0x3b, r0	; 59
    2824:	0f 90       	pop	r0
    2826:	0f be       	out	0x3f, r0	; 63
    2828:	0f 90       	pop	r0
    282a:	1f 90       	pop	r1
    282c:	18 95       	reti

0000282e <__vector_11>:
    282e:	1f 92       	push	r1
    2830:	0f 92       	push	r0
    2832:	0f b6       	in	r0, 0x3f	; 63
    2834:	0f 92       	push	r0
    2836:	11 24       	eor	r1, r1
    2838:	0b b6       	in	r0, 0x3b	; 59
    283a:	0f 92       	push	r0
    283c:	2f 93       	push	r18
    283e:	3f 93       	push	r19
    2840:	4f 93       	push	r20
    2842:	5f 93       	push	r21
    2844:	6f 93       	push	r22
    2846:	7f 93       	push	r23
    2848:	8f 93       	push	r24
    284a:	9f 93       	push	r25
    284c:	af 93       	push	r26
    284e:	bf 93       	push	r27
    2850:	ef 93       	push	r30
    2852:	ff 93       	push	r31
    2854:	80 91 9c 02 	lds	r24, 0x029C	; 0x80029c <task2>
    2858:	81 11       	cpse	r24, r1
    285a:	06 c0       	rjmp	.+12     	; 0x2868 <__vector_11+0x3a>
    285c:	0e 94 f2 04 	call	0x9e4	; 0x9e4 <_Z10BrakeMotorv>
    2860:	81 e0       	ldi	r24, 0x01	; 1
    2862:	80 93 9c 02 	sts	0x029C, r24	; 0x80029c <task2>
    2866:	41 c0       	rjmp	.+130    	; 0x28ea <__vector_11+0xbc>
    2868:	80 91 9b 02 	lds	r24, 0x029B	; 0x80029b <task3>
    286c:	81 11       	cpse	r24, r1
    286e:	08 c0       	rjmp	.+16     	; 0x2880 <__vector_11+0x52>
    2870:	81 e0       	ldi	r24, 0x01	; 1
    2872:	80 93 a6 02 	sts	0x02A6, r24	; 0x8002a6 <_b_Transmit_once>
    2876:	80 93 9b 02 	sts	0x029B, r24	; 0x80029b <task3>
    287a:	0e 94 f2 04 	call	0x9e4	; 0x9e4 <_Z10BrakeMotorv>
    287e:	35 c0       	rjmp	.+106    	; 0x28ea <__vector_11+0xbc>
    2880:	80 91 9a 02 	lds	r24, 0x029A	; 0x80029a <task4>
    2884:	81 11       	cpse	r24, r1
    2886:	06 c0       	rjmp	.+12     	; 0x2894 <__vector_11+0x66>
    2888:	81 e0       	ldi	r24, 0x01	; 1
    288a:	80 93 9a 02 	sts	0x029A, r24	; 0x80029a <task4>
    288e:	0e 94 f2 04 	call	0x9e4	; 0x9e4 <_Z10BrakeMotorv>
    2892:	2b c0       	rjmp	.+86     	; 0x28ea <__vector_11+0xbc>
    2894:	80 91 98 02 	lds	r24, 0x0298	; 0x800298 <task6>
    2898:	81 11       	cpse	r24, r1
    289a:	08 c0       	rjmp	.+16     	; 0x28ac <__vector_11+0x7e>
    289c:	81 e0       	ldi	r24, 0x01	; 1
    289e:	80 93 a6 02 	sts	0x02A6, r24	; 0x8002a6 <_b_Transmit_once>
    28a2:	80 93 98 02 	sts	0x0298, r24	; 0x800298 <task6>
    28a6:	0e 94 f2 04 	call	0x9e4	; 0x9e4 <_Z10BrakeMotorv>
    28aa:	1f c0       	rjmp	.+62     	; 0x28ea <__vector_11+0xbc>
    28ac:	80 91 97 02 	lds	r24, 0x0297	; 0x800297 <task7>
    28b0:	81 11       	cpse	r24, r1
    28b2:	06 c0       	rjmp	.+12     	; 0x28c0 <__vector_11+0x92>
    28b4:	81 e0       	ldi	r24, 0x01	; 1
    28b6:	80 93 97 02 	sts	0x0297, r24	; 0x800297 <task7>
    28ba:	0e 94 f2 04 	call	0x9e4	; 0x9e4 <_Z10BrakeMotorv>
    28be:	15 c0       	rjmp	.+42     	; 0x28ea <__vector_11+0xbc>
    28c0:	80 91 96 02 	lds	r24, 0x0296	; 0x800296 <task8>
    28c4:	81 11       	cpse	r24, r1
    28c6:	08 c0       	rjmp	.+16     	; 0x28d8 <__vector_11+0xaa>
    28c8:	81 e0       	ldi	r24, 0x01	; 1
    28ca:	80 93 a6 02 	sts	0x02A6, r24	; 0x8002a6 <_b_Transmit_once>
    28ce:	80 93 96 02 	sts	0x0296, r24	; 0x800296 <task8>
    28d2:	0e 94 f2 04 	call	0x9e4	; 0x9e4 <_Z10BrakeMotorv>
    28d6:	09 c0       	rjmp	.+18     	; 0x28ea <__vector_11+0xbc>
    28d8:	80 91 95 02 	lds	r24, 0x0295	; 0x800295 <task9>
    28dc:	81 11       	cpse	r24, r1
    28de:	05 c0       	rjmp	.+10     	; 0x28ea <__vector_11+0xbc>
    28e0:	81 e0       	ldi	r24, 0x01	; 1
    28e2:	80 93 95 02 	sts	0x0295, r24	; 0x800295 <task9>
    28e6:	0e 94 f2 04 	call	0x9e4	; 0x9e4 <_Z10BrakeMotorv>
    28ea:	ff 91       	pop	r31
    28ec:	ef 91       	pop	r30
    28ee:	bf 91       	pop	r27
    28f0:	af 91       	pop	r26
    28f2:	9f 91       	pop	r25
    28f4:	8f 91       	pop	r24
    28f6:	7f 91       	pop	r23
    28f8:	6f 91       	pop	r22
    28fa:	5f 91       	pop	r21
    28fc:	4f 91       	pop	r20
    28fe:	3f 91       	pop	r19
    2900:	2f 91       	pop	r18
    2902:	0f 90       	pop	r0
    2904:	0b be       	out	0x3b, r0	; 59
    2906:	0f 90       	pop	r0
    2908:	0f be       	out	0x3f, r0	; 63
    290a:	0f 90       	pop	r0
    290c:	1f 90       	pop	r1
    290e:	18 95       	reti

00002910 <_Z16checkJunctionOfYv>:
    2910:	80 91 06 01 	lds	r24, 0x0106	; 0x800106 <__TEXT_REGION_LENGTH__+0x700106>
    2914:	88 23       	and	r24, r24
    2916:	24 f4       	brge	.+8      	; 0x2920 <_Z16checkJunctionOfYv+0x10>
    2918:	81 e0       	ldi	r24, 0x01	; 1
    291a:	80 93 82 02 	sts	0x0282, r24	; 0x800282 <__data_end>
    291e:	08 95       	ret
    2920:	10 92 82 02 	sts	0x0282, r1	; 0x800282 <__data_end>
    2924:	08 95       	ret

00002926 <_Z24reactConditionOfLineLeftv>:
	// 		 uart0_puts("\r\n");
}
void reactConditionOfLineLeft(){
	//////////Find the condition when line is left////////
	
	if(movingyback || movingyfront){
    2926:	80 91 74 03 	lds	r24, 0x0374	; 0x800374 <movingyback>
    292a:	81 11       	cpse	r24, r1
    292c:	05 c0       	rjmp	.+10     	; 0x2938 <_Z24reactConditionOfLineLeftv+0x12>
    292e:	90 91 75 03 	lds	r25, 0x0375	; 0x800375 <movingyfront>
    2932:	99 23       	and	r25, r25
    2934:	09 f4       	brne	.+2      	; 0x2938 <_Z24reactConditionOfLineLeftv+0x12>
    2936:	c3 c0       	rjmp	.+390    	; 0x2abe <_Z24reactConditionOfLineLeftv+0x198>
		if(lineTrackerData == 0 && previousLinetrackerData == 10 && !junctionY)
    2938:	20 91 57 03 	lds	r18, 0x0357	; 0x800357 <lineTrackerData>
    293c:	30 91 58 03 	lds	r19, 0x0358	; 0x800358 <lineTrackerData+0x1>
    2940:	21 15       	cp	r18, r1
    2942:	31 05       	cpc	r19, r1
    2944:	19 f5       	brne	.+70     	; 0x298c <_Z24reactConditionOfLineLeftv+0x66>
    2946:	40 91 55 03 	lds	r20, 0x0355	; 0x800355 <previousLinetrackerData>
    294a:	50 91 56 03 	lds	r21, 0x0356	; 0x800356 <previousLinetrackerData+0x1>
    294e:	4a 30       	cpi	r20, 0x0A	; 10
    2950:	51 05       	cpc	r21, r1
    2952:	61 f4       	brne	.+24     	; 0x296c <_Z24reactConditionOfLineLeftv+0x46>
    2954:	90 91 82 02 	lds	r25, 0x0282	; 0x800282 <__data_end>
    2958:	91 11       	cpse	r25, r1
    295a:	28 c0       	rjmp	.+80     	; 0x29ac <_Z24reactConditionOfLineLeftv+0x86>
		{
			ltY.leftedgeleft = true;
    295c:	e3 e1       	ldi	r30, 0x13	; 19
    295e:	f3 e0       	ldi	r31, 0x03	; 3
    2960:	91 e0       	ldi	r25, 0x01	; 1
    2962:	90 87       	std	Z+8, r25	; 0x08
			ltY.rightedgeleft = false;
    2964:	11 86       	std	Z+9, r1	; 0x09
			lineMeet = false;
    2966:	10 92 09 02 	sts	0x0209, r1	; 0x800209 <lineMeet>
    296a:	90 c0       	rjmp	.+288    	; 0x2a8c <_Z24reactConditionOfLineLeftv+0x166>
		}
		else if(lineTrackerData == 0 && previousLinetrackerData == 80 && !junctionY)
    296c:	40 35       	cpi	r20, 0x50	; 80
    296e:	51 05       	cpc	r21, r1
    2970:	09 f0       	breq	.+2      	; 0x2974 <_Z24reactConditionOfLineLeftv+0x4e>
    2972:	96 c0       	rjmp	.+300    	; 0x2aa0 <_Z24reactConditionOfLineLeftv+0x17a>
    2974:	90 91 82 02 	lds	r25, 0x0282	; 0x800282 <__data_end>
    2978:	91 11       	cpse	r25, r1
    297a:	92 c0       	rjmp	.+292    	; 0x2aa0 <_Z24reactConditionOfLineLeftv+0x17a>
		{
			ltY.rightedgeleft = true;
    297c:	e3 e1       	ldi	r30, 0x13	; 19
    297e:	f3 e0       	ldi	r31, 0x03	; 3
    2980:	91 e0       	ldi	r25, 0x01	; 1
    2982:	91 87       	std	Z+9, r25	; 0x09
			ltY.leftedgeleft = false;
    2984:	10 86       	std	Z+8, r1	; 0x08
			lineMeet = false;
    2986:	10 92 09 02 	sts	0x0209, r1	; 0x800209 <lineMeet>
    298a:	7b c0       	rjmp	.+246    	; 0x2a82 <_Z24reactConditionOfLineLeftv+0x15c>
		}
		/////////////////////////////////////////////////////
		
		////If line left by linetracker find when line is meet
		if(ltY.rightedgeleft && lineTrackerData == 80){
    298c:	90 91 1c 03 	lds	r25, 0x031C	; 0x80031c <ltY+0x9>
    2990:	99 23       	and	r25, r25
    2992:	61 f0       	breq	.+24     	; 0x29ac <_Z24reactConditionOfLineLeftv+0x86>
    2994:	20 35       	cpi	r18, 0x50	; 80
    2996:	31 05       	cpc	r19, r1
    2998:	09 f0       	breq	.+2      	; 0x299c <_Z24reactConditionOfLineLeftv+0x76>
    299a:	87 c0       	rjmp	.+270    	; 0x2aaa <_Z24reactConditionOfLineLeftv+0x184>
			lineMeet = true;
    299c:	81 e0       	ldi	r24, 0x01	; 1
    299e:	80 93 09 02 	sts	0x0209, r24	; 0x800209 <lineMeet>
			ltY.rightedgeleft = false;
    29a2:	e3 e1       	ldi	r30, 0x13	; 19
    29a4:	f3 e0       	ldi	r31, 0x03	; 3
    29a6:	11 86       	std	Z+9, r1	; 0x09
			ltY.leftedgeleft = false;
    29a8:	10 86       	std	Z+8, r1	; 0x08
    29aa:	08 95       	ret
		}
		else if(ltY.leftedgeleft && lineTrackerData == 10){
    29ac:	90 91 1b 03 	lds	r25, 0x031B	; 0x80031b <ltY+0x8>
    29b0:	99 23       	and	r25, r25
    29b2:	09 f4       	brne	.+2      	; 0x29b6 <_Z24reactConditionOfLineLeftv+0x90>
    29b4:	66 c0       	rjmp	.+204    	; 0x2a82 <_Z24reactConditionOfLineLeftv+0x15c>
    29b6:	2a 30       	cpi	r18, 0x0A	; 10
    29b8:	31 05       	cpc	r19, r1
    29ba:	09 f0       	breq	.+2      	; 0x29be <_Z24reactConditionOfLineLeftv+0x98>
    29bc:	67 c0       	rjmp	.+206    	; 0x2a8c <_Z24reactConditionOfLineLeftv+0x166>
			lineMeet = true;
    29be:	81 e0       	ldi	r24, 0x01	; 1
    29c0:	80 93 09 02 	sts	0x0209, r24	; 0x800209 <lineMeet>
			ltY.leftedgeleft = false;
    29c4:	e3 e1       	ldi	r30, 0x13	; 19
    29c6:	f3 e0       	ldi	r31, 0x03	; 3
    29c8:	10 86       	std	Z+8, r1	; 0x08
			ltY.rightedgeleft = false;
    29ca:	11 86       	std	Z+9, r1	; 0x09
    29cc:	08 95       	ret
		}
		///////////////////////////////////////////////////////
		
		////////// if edge is left and junction is detected //////
		if((ltY.leftedgeleft || ltY.rightedgeleft) && junctionY){
			if(movingyfront){
    29ce:	90 91 75 03 	lds	r25, 0x0375	; 0x800375 <movingyfront>
    29d2:	99 23       	and	r25, r25
    29d4:	59 f0       	breq	.+22     	; 0x29ec <_Z24reactConditionOfLineLeftv+0xc6>
				velocity_robot[0] = 0;		//x
    29d6:	ee e7       	ldi	r30, 0x7E	; 126
    29d8:	f3 e0       	ldi	r31, 0x03	; 3
    29da:	11 82       	std	Z+1, r1	; 0x01
    29dc:	10 82       	st	Z, r1
				velocity_robot[1] = 40;		//y
    29de:	88 e2       	ldi	r24, 0x28	; 40
    29e0:	90 e0       	ldi	r25, 0x00	; 0
    29e2:	93 83       	std	Z+3, r25	; 0x03
    29e4:	82 83       	std	Z+2, r24	; 0x02
				calculateCompassPID();
    29e6:	0c 94 c9 05 	jmp	0xb92	; 0xb92 <_Z19calculateCompassPIDv>
    29ea:	08 95       	ret
			}
			else if(movingyback){
    29ec:	88 23       	and	r24, r24
    29ee:	09 f4       	brne	.+2      	; 0x29f2 <_Z24reactConditionOfLineLeftv+0xcc>
    29f0:	66 c0       	rjmp	.+204    	; 0x2abe <_Z24reactConditionOfLineLeftv+0x198>
				velocity_robot[0] = 0;
    29f2:	ee e7       	ldi	r30, 0x7E	; 126
    29f4:	f3 e0       	ldi	r31, 0x03	; 3
    29f6:	11 82       	std	Z+1, r1	; 0x01
    29f8:	10 82       	st	Z, r1
				velocity_robot[1] = -40;
    29fa:	88 ed       	ldi	r24, 0xD8	; 216
    29fc:	9f ef       	ldi	r25, 0xFF	; 255
    29fe:	93 83       	std	Z+3, r25	; 0x03
    2a00:	82 83       	std	Z+2, r24	; 0x02
				calculateCompassPID();
    2a02:	0c 94 c9 05 	jmp	0xb92	; 0xb92 <_Z19calculateCompassPIDv>
    2a06:	08 95       	ret
			}
		}
		/////////////////////////////////////////////////////////
		else if(ltY.leftedgeleft){
			if(movingyfront){
    2a08:	90 91 75 03 	lds	r25, 0x0375	; 0x800375 <movingyfront>
    2a0c:	99 23       	and	r25, r25
    2a0e:	69 f0       	breq	.+26     	; 0x2a2a <_Z24reactConditionOfLineLeftv+0x104>
				velocity_robot[0] = -40;
    2a10:	ee e7       	ldi	r30, 0x7E	; 126
    2a12:	f3 e0       	ldi	r31, 0x03	; 3
    2a14:	88 ed       	ldi	r24, 0xD8	; 216
    2a16:	9f ef       	ldi	r25, 0xFF	; 255
    2a18:	91 83       	std	Z+1, r25	; 0x01
    2a1a:	80 83       	st	Z, r24
				velocity_robot[1] = 10;
    2a1c:	8a e0       	ldi	r24, 0x0A	; 10
    2a1e:	90 e0       	ldi	r25, 0x00	; 0
    2a20:	93 83       	std	Z+3, r25	; 0x03
    2a22:	82 83       	std	Z+2, r24	; 0x02
				calculateCompassPID();
    2a24:	0c 94 c9 05 	jmp	0xb92	; 0xb92 <_Z19calculateCompassPIDv>
    2a28:	08 95       	ret
			}
			else if(movingyback){
    2a2a:	88 23       	and	r24, r24
    2a2c:	09 f4       	brne	.+2      	; 0x2a30 <_Z24reactConditionOfLineLeftv+0x10a>
    2a2e:	47 c0       	rjmp	.+142    	; 0x2abe <_Z24reactConditionOfLineLeftv+0x198>
				velocity_robot[0] = -40;
    2a30:	ee e7       	ldi	r30, 0x7E	; 126
    2a32:	f3 e0       	ldi	r31, 0x03	; 3
    2a34:	88 ed       	ldi	r24, 0xD8	; 216
    2a36:	9f ef       	ldi	r25, 0xFF	; 255
    2a38:	91 83       	std	Z+1, r25	; 0x01
    2a3a:	80 83       	st	Z, r24
				velocity_robot[1] = -10;
    2a3c:	86 ef       	ldi	r24, 0xF6	; 246
    2a3e:	9f ef       	ldi	r25, 0xFF	; 255
    2a40:	93 83       	std	Z+3, r25	; 0x03
    2a42:	82 83       	std	Z+2, r24	; 0x02
				calculateCompassPID();
    2a44:	0c 94 c9 05 	jmp	0xb92	; 0xb92 <_Z19calculateCompassPIDv>
    2a48:	08 95       	ret
			}
		}
		else if(ltY.rightedgeleft ){
			if(movingyfront){
				velocity_robot[0] = 40;
    2a4a:	ee e7       	ldi	r30, 0x7E	; 126
    2a4c:	f3 e0       	ldi	r31, 0x03	; 3
    2a4e:	88 e2       	ldi	r24, 0x28	; 40
    2a50:	90 e0       	ldi	r25, 0x00	; 0
    2a52:	91 83       	std	Z+1, r25	; 0x01
    2a54:	80 83       	st	Z, r24
				velocity_robot[1] = 10;
    2a56:	8a e0       	ldi	r24, 0x0A	; 10
    2a58:	90 e0       	ldi	r25, 0x00	; 0
    2a5a:	93 83       	std	Z+3, r25	; 0x03
    2a5c:	82 83       	std	Z+2, r24	; 0x02
				calculateCompassPID();
    2a5e:	0c 94 c9 05 	jmp	0xb92	; 0xb92 <_Z19calculateCompassPIDv>
    2a62:	08 95       	ret
			}
			else if(movingyback){
    2a64:	88 23       	and	r24, r24
    2a66:	59 f1       	breq	.+86     	; 0x2abe <_Z24reactConditionOfLineLeftv+0x198>
				velocity_robot[0] = 40;
    2a68:	ee e7       	ldi	r30, 0x7E	; 126
    2a6a:	f3 e0       	ldi	r31, 0x03	; 3
    2a6c:	88 e2       	ldi	r24, 0x28	; 40
    2a6e:	90 e0       	ldi	r25, 0x00	; 0
    2a70:	91 83       	std	Z+1, r25	; 0x01
    2a72:	80 83       	st	Z, r24
				velocity_robot[1] = -10;
    2a74:	86 ef       	ldi	r24, 0xF6	; 246
    2a76:	9f ef       	ldi	r25, 0xFF	; 255
    2a78:	93 83       	std	Z+3, r25	; 0x03
    2a7a:	82 83       	std	Z+2, r24	; 0x02
				calculateCompassPID();
    2a7c:	0c 94 c9 05 	jmp	0xb92	; 0xb92 <_Z19calculateCompassPIDv>
			}
		}
	}
}
    2a80:	08 95       	ret
			ltY.rightedgeleft = false;
		}
		///////////////////////////////////////////////////////
		
		////////// if edge is left and junction is detected //////
		if((ltY.leftedgeleft || ltY.rightedgeleft) && junctionY){
    2a82:	90 91 1c 03 	lds	r25, 0x031C	; 0x80031c <ltY+0x9>
    2a86:	91 11       	cpse	r25, r1
    2a88:	06 c0       	rjmp	.+12     	; 0x2a96 <_Z24reactConditionOfLineLeftv+0x170>
    2a8a:	08 95       	ret
    2a8c:	90 91 82 02 	lds	r25, 0x0282	; 0x800282 <__data_end>
    2a90:	91 11       	cpse	r25, r1
    2a92:	9d cf       	rjmp	.-198    	; 0x29ce <_Z24reactConditionOfLineLeftv+0xa8>
    2a94:	b9 cf       	rjmp	.-142    	; 0x2a08 <_Z24reactConditionOfLineLeftv+0xe2>
    2a96:	90 91 82 02 	lds	r25, 0x0282	; 0x800282 <__data_end>
    2a9a:	99 23       	and	r25, r25
    2a9c:	59 f0       	breq	.+22     	; 0x2ab4 <_Z24reactConditionOfLineLeftv+0x18e>
    2a9e:	97 cf       	rjmp	.-210    	; 0x29ce <_Z24reactConditionOfLineLeftv+0xa8>
		if(ltY.rightedgeleft && lineTrackerData == 80){
			lineMeet = true;
			ltY.rightedgeleft = false;
			ltY.leftedgeleft = false;
		}
		else if(ltY.leftedgeleft && lineTrackerData == 10){
    2aa0:	90 91 1b 03 	lds	r25, 0x031B	; 0x80031b <ltY+0x8>
    2aa4:	99 23       	and	r25, r25
    2aa6:	69 f3       	breq	.-38     	; 0x2a82 <_Z24reactConditionOfLineLeftv+0x15c>
    2aa8:	f1 cf       	rjmp	.-30     	; 0x2a8c <_Z24reactConditionOfLineLeftv+0x166>
    2aaa:	90 91 1b 03 	lds	r25, 0x031B	; 0x80031b <ltY+0x8>
    2aae:	99 23       	and	r25, r25
    2ab0:	91 f3       	breq	.-28     	; 0x2a96 <_Z24reactConditionOfLineLeftv+0x170>
    2ab2:	81 cf       	rjmp	.-254    	; 0x29b6 <_Z24reactConditionOfLineLeftv+0x90>
				velocity_robot[1] = -10;
				calculateCompassPID();
			}
		}
		else if(ltY.rightedgeleft ){
			if(movingyfront){
    2ab4:	90 91 75 03 	lds	r25, 0x0375	; 0x800375 <movingyfront>
    2ab8:	99 23       	and	r25, r25
    2aba:	a1 f2       	breq	.-88     	; 0x2a64 <_Z24reactConditionOfLineLeftv+0x13e>
    2abc:	c6 cf       	rjmp	.-116    	; 0x2a4a <_Z24reactConditionOfLineLeftv+0x124>
    2abe:	08 95       	ret

00002ac0 <main>:
}

int main(void)
{
	////////////SET COMMUNICATION PINS AS INPUT AND PULL UP////////
	INPUT(SHUTTLECOCKPIN);
    2ac0:	ea e0       	ldi	r30, 0x0A	; 10
    2ac2:	f1 e0       	ldi	r31, 0x01	; 1
    2ac4:	80 81       	ld	r24, Z
    2ac6:	8f 7e       	andi	r24, 0xEF	; 239
    2ac8:	80 83       	st	Z, r24
	INPUT(ZONEPIN);
    2aca:	80 81       	ld	r24, Z
    2acc:	8f 7b       	andi	r24, 0xBF	; 191
    2ace:	80 83       	st	Z, r24
 	SET(SHUTTLECOCKPIN);
    2ad0:	eb e0       	ldi	r30, 0x0B	; 11
    2ad2:	f1 e0       	ldi	r31, 0x01	; 1
    2ad4:	80 81       	ld	r24, Z
    2ad6:	80 61       	ori	r24, 0x10	; 16
    2ad8:	80 83       	st	Z, r24
 	SET(ZONEPIN);
    2ada:	80 81       	ld	r24, Z
    2adc:	80 64       	ori	r24, 0x40	; 64
    2ade:	80 83       	st	Z, r24
	///////PULL DOWN RACK PIN 
	INPUT(RACKPIN);
    2ae0:	85 98       	cbi	0x10, 5	; 16
	CLEAR(RACKPIN);
    2ae2:	8d 98       	cbi	0x11, 5	; 17
	///SET PK1 AS OUTPUT TO SEND SIGNAL TO SLAVE TO BRAKE MOTOR 
	DDRK |= (1<<PK0);
    2ae4:	e7 e0       	ldi	r30, 0x07	; 7
    2ae6:	f1 e0       	ldi	r31, 0x01	; 1
    2ae8:	80 81       	ld	r24, Z
    2aea:	81 60       	ori	r24, 0x01	; 1
    2aec:	80 83       	st	Z, r24
	PORTK &= ~(1<<PK0); 
    2aee:	e8 e0       	ldi	r30, 0x08	; 8
    2af0:	f1 e0       	ldi	r31, 0x01	; 1
    2af2:	80 81       	ld	r24, Z
    2af4:	8e 7f       	andi	r24, 0xFE	; 254
    2af6:	80 83       	st	Z, r24
	///Turn internal pullup for limit switch pin
	INPUT(RIGHT_LIMIT_SW);
    2af8:	81 98       	cbi	0x10, 1	; 16
	INPUT(LEFT_LIMIT_SW);
    2afa:	82 98       	cbi	0x10, 2	; 16
	SET(RIGHT_LIMIT_SW);
    2afc:	89 9a       	sbi	0x11, 1	; 17
	SET(LEFT_LIMIT_SW);
    2afe:	8a 9a       	sbi	0x11, 2	; 17
	/// INITIALIZE ALL THE UART
	uart0_init(UART_BAUD_SELECT(9600,F_CPU));
    2b00:	87 e6       	ldi	r24, 0x67	; 103
    2b02:	90 e0       	ldi	r25, 0x00	; 0
    2b04:	4b d5       	rcall	.+2710   	; 0x359c <_Z10uart0_initj>
	uart2_init(UART_BAUD_SELECT(38400,F_CPU));
    2b06:	89 e1       	ldi	r24, 0x19	; 25
    2b08:	90 e0       	ldi	r25, 0x00	; 0
    2b0a:	3e d6       	rcall	.+3196   	; 0x3788 <_Z10uart2_initj>
	uart3_init(UART_BAUD_SELECT(38400,F_CPU));
    2b0c:	89 e1       	ldi	r24, 0x19	; 25
    2b0e:	90 e0       	ldi	r25, 0x00	; 0
    2b10:	c6 d6       	rcall	.+3468   	; 0x389e <_Z10uart3_initj>
	//INITIALIZE EVERYTHING ELSE
 	
	uart0_puts("starting\r\n");
    2b12:	86 e6       	ldi	r24, 0x66	; 102
    2b14:	92 e0       	ldi	r25, 0x02	; 2
    2b16:	70 d5       	rcall	.+2784   	; 0x35f8 <_Z10uart0_putsPKc>
    2b18:	0e 94 ea 08 	call	0x11d4	; 0x11d4 <_Z13initializeAllv>
	initializeAll();
    2b1c:	78 94       	sei
	char rcvdata = 'q';
	sei();
    2b1e:	0e 94 0f 05 	call	0xa1e	; 0xa1e <_Z19getLineTrackerYdatav>
		//For calibration of compass////////// 
		

///////////copy this code and run.//////////////
//get linetracker data
lineTrackerData = getLineTrackerYdata();
    2b22:	90 93 58 03 	sts	0x0358, r25	; 0x800358 <lineTrackerData+0x1>
    2b26:	80 93 57 03 	sts	0x0357, r24	; 0x800357 <lineTrackerData>
//get compass data
//compass_Angle = get_Angle();
//Check the junction of Y linetracker
checkJunctionOfY();
    2b2a:	f2 de       	rcall	.-540    	; 0x2910 <_Z16checkJunctionOfYv>
//call the gameplay function
//changeCompassSetpoint();
gorockthegamefield();
    2b2c:	e7 d8       	rcall	.-3634   	; 0x1cfc <_Z18gorockthegamefieldv>
    2b2e:	fb de       	rcall	.-522    	; 0x2926 <_Z24reactConditionOfLineLeftv>
//check for line left condition and react to it
reactConditionOfLineLeft();
    2b30:	0e 94 1d 07 	call	0xe3a	; 0xe3a <_Z12calculatevelv>
//calculate velocity of each motor and send to slave
calculatevel();
    2b34:	80 91 71 03 	lds	r24, 0x0371	; 0x800371 <_ZL16linetracker_data>
//set previous line tracker data
previousLinetrackerData = linetracker_data;
    2b38:	90 91 72 03 	lds	r25, 0x0372	; 0x800372 <_ZL16linetracker_data+0x1>
    2b3c:	90 93 56 03 	sts	0x0356, r25	; 0x800356 <previousLinetrackerData+0x1>
    2b40:	80 93 55 03 	sts	0x0355, r24	; 0x800355 <previousLinetrackerData>
    2b44:	ec cf       	rjmp	.-40     	; 0x2b1e <main+0x5e>

00002b46 <_GLOBAL__sub_I_compassPID>:
    2b46:	80 ec       	ldi	r24, 0xC0	; 192
    2b48:	93 e0       	ldi	r25, 0x03	; 3
#include "hmccompass.h"
#include "MPU6050.h"
#include "General-function.h"


static MPU6050 mpu;
    2b4a:	33 d0       	rcall	.+102    	; 0x2bb2 <_ZN7MPU6050C1Ev>
};
////////////////////////////////////////////////////////////////////////////////


struct bodyPid{ 
	bodyPid():FirstData(true){};
    2b4c:	e4 e3       	ldi	r30, 0x34	; 52
    2b4e:	f3 e0       	ldi	r31, 0x03	; 3
    2b50:	10 86       	std	Z+8, r1	; 0x08
    2b52:	11 86       	std	Z+9, r1	; 0x09
    2b54:	81 e0       	ldi	r24, 0x01	; 1
    2b56:	80 8b       	std	Z+16, r24	; 0x10
    2b58:	e3 e1       	ldi	r30, 0x13	; 19
    2b5a:	f3 e0       	ldi	r31, 0x03	; 3
    2b5c:	10 86       	std	Z+8, r1	; 0x08
    2b5e:	11 86       	std	Z+9, r1	; 0x09
    2b60:	80 8b       	std	Z+16, r24	; 0x10
    2b62:	e2 ef       	ldi	r30, 0xF2	; 242
    2b64:	f2 e0       	ldi	r31, 0x02	; 2
    2b66:	10 86       	std	Z+8, r1	; 0x08
    2b68:	11 86       	std	Z+9, r1	; 0x09
    2b6a:	80 8b       	std	Z+16, r24	; 0x10
    2b6c:	e1 ed       	ldi	r30, 0xD1	; 209
    2b6e:	f2 e0       	ldi	r31, 0x02	; 2
    2b70:	10 86       	std	Z+8, r1	; 0x08
    2b72:	11 86       	std	Z+9, r1	; 0x09
    2b74:	80 8b       	std	Z+16, r24	; 0x10
    2b76:	e0 eb       	ldi	r30, 0xB0	; 176
    2b78:	f2 e0       	ldi	r31, 0x02	; 2
    2b7a:	10 86       	std	Z+8, r1	; 0x08
    2b7c:	11 86       	std	Z+9, r1	; 0x09
    2b7e:	80 8b       	std	Z+16, r24	; 0x10
		
	public:
		float distance;
		encoder()
		{
			count_encoder= 0;
    2b80:	10 92 8c 02 	sts	0x028C, r1	; 0x80028c <encoderX+0x1>
    2b84:	10 92 8b 02 	sts	0x028B, r1	; 0x80028b <encoderX>
			Init_encoder_interrupt();
    2b88:	8b e8       	ldi	r24, 0x8B	; 139
    2b8a:	92 e0       	ldi	r25, 0x02	; 2
    2b8c:	0e 94 cb 00 	call	0x196	; 0x196 <_ZN7encoder22Init_encoder_interruptEv>
			Init_timer();
    2b90:	8b e8       	ldi	r24, 0x8B	; 139
    2b92:	92 e0       	ldi	r25, 0x02	; 2
    2b94:	0e 94 d6 00 	call	0x1ac	; 0x1ac <_ZN7encoder10Init_timerEv>
		
	public:
		float distance;
		encoder()
		{
			count_encoder= 0;
    2b98:	10 92 84 02 	sts	0x0284, r1	; 0x800284 <encoderY+0x1>
    2b9c:	10 92 83 02 	sts	0x0283, r1	; 0x800283 <encoderY>
			Init_encoder_interrupt();
    2ba0:	83 e8       	ldi	r24, 0x83	; 131
    2ba2:	92 e0       	ldi	r25, 0x02	; 2
    2ba4:	0e 94 cb 00 	call	0x196	; 0x196 <_ZN7encoder22Init_encoder_interruptEv>
			Init_timer();
    2ba8:	83 e8       	ldi	r24, 0x83	; 131
    2baa:	92 e0       	ldi	r25, 0x02	; 2
    2bac:	0c 94 d6 00 	jmp	0x1ac	; 0x1ac <_ZN7encoder10Init_timerEv>
    2bb0:	08 95       	ret

00002bb2 <_ZN7MPU6050C1Ev>:

// Get current threshold value
uint8_t MPU6050::getThreshold(void)
{
	return actualThreshold;
}
    2bb2:	fc 01       	movw	r30, r24
    2bb4:	14 ae       	std	Z+60, r1	; 0x3c
    2bb6:	15 ae       	std	Z+61, r1	; 0x3d
    2bb8:	16 ae       	std	Z+62, r1	; 0x3e
    2bba:	17 ae       	std	Z+63, r1	; 0x3f
    2bbc:	dc 01       	movw	r26, r24
    2bbe:	a0 5c       	subi	r26, 0xC0	; 192
    2bc0:	bf 4f       	sbci	r27, 0xFF	; 255
    2bc2:	1d 92       	st	X+, r1
    2bc4:	1d 92       	st	X+, r1
    2bc6:	1d 92       	st	X+, r1
    2bc8:	1c 92       	st	X, r1
    2bca:	13 97       	sbiw	r26, 0x03	; 3
    2bcc:	14 96       	adiw	r26, 0x04	; 4
    2bce:	1d 92       	st	X+, r1
    2bd0:	1d 92       	st	X+, r1
    2bd2:	1d 92       	st	X+, r1
    2bd4:	1c 92       	st	X, r1
    2bd6:	13 97       	sbiw	r26, 0x03	; 3
    2bd8:	d4 96       	adiw	r26, 0x34	; 52
    2bda:	1c 92       	st	X, r1
    2bdc:	d0 97       	sbiw	r26, 0x30	; 48
    2bde:	1d 92       	st	X+, r1
    2be0:	1d 92       	st	X+, r1
    2be2:	1d 92       	st	X+, r1
    2be4:	1c 92       	st	X, r1
    2be6:	13 97       	sbiw	r26, 0x03	; 3
    2be8:	14 96       	adiw	r26, 0x04	; 4
    2bea:	1d 92       	st	X+, r1
    2bec:	1d 92       	st	X+, r1
    2bee:	1d 92       	st	X+, r1
    2bf0:	1c 92       	st	X, r1
    2bf2:	13 97       	sbiw	r26, 0x03	; 3
    2bf4:	14 96       	adiw	r26, 0x04	; 4
    2bf6:	1d 92       	st	X+, r1
    2bf8:	1d 92       	st	X+, r1
    2bfa:	1d 92       	st	X+, r1
    2bfc:	1c 92       	st	X, r1
    2bfe:	13 97       	sbiw	r26, 0x03	; 3
    2c00:	10 aa       	std	Z+48, r1	; 0x30
    2c02:	11 aa       	std	Z+49, r1	; 0x31
    2c04:	12 aa       	std	Z+50, r1	; 0x32
    2c06:	13 aa       	std	Z+51, r1	; 0x33
    2c08:	14 aa       	std	Z+52, r1	; 0x34
    2c0a:	15 aa       	std	Z+53, r1	; 0x35
    2c0c:	16 aa       	std	Z+54, r1	; 0x36
    2c0e:	17 aa       	std	Z+55, r1	; 0x37
    2c10:	10 ae       	std	Z+56, r1	; 0x38
    2c12:	11 ae       	std	Z+57, r1	; 0x39
    2c14:	12 ae       	std	Z+58, r1	; 0x3a
    2c16:	13 ae       	std	Z+59, r1	; 0x3b
    2c18:	94 96       	adiw	r26, 0x24	; 36
    2c1a:	1d 92       	st	X+, r1
    2c1c:	1d 92       	st	X+, r1
    2c1e:	1d 92       	st	X+, r1
    2c20:	1c 92       	st	X, r1
    2c22:	13 97       	sbiw	r26, 0x03	; 3
    2c24:	18 97       	sbiw	r26, 0x08	; 8
    2c26:	4f e3       	ldi	r20, 0x3F	; 63
    2c28:	5e e1       	ldi	r21, 0x1E	; 30
    2c2a:	6a ef       	ldi	r22, 0xFA	; 250
    2c2c:	7b e3       	ldi	r23, 0x3B	; 59
    2c2e:	4d 93       	st	X+, r20
    2c30:	5d 93       	st	X+, r21
    2c32:	6d 93       	st	X+, r22
    2c34:	7c 93       	st	X, r23
    2c36:	13 97       	sbiw	r26, 0x03	; 3
    2c38:	e0 59       	subi	r30, 0x90	; 144
    2c3a:	ff 4f       	sbci	r31, 0xFF	; 255
    2c3c:	80 e4       	ldi	r24, 0x40	; 64
    2c3e:	9a ed       	ldi	r25, 0xDA	; 218
    2c40:	af e7       	ldi	r26, 0x7F	; 127
    2c42:	b8 e3       	ldi	r27, 0x38	; 56
    2c44:	80 83       	st	Z, r24
    2c46:	91 83       	std	Z+1, r25	; 0x01
    2c48:	a2 83       	std	Z+2, r26	; 0x02
    2c4a:	b3 83       	std	Z+3, r27	; 0x03
    2c4c:	08 95       	ret

00002c4e <_ZN7MPU60504InitEv>:
    2c4e:	2f ef       	ldi	r18, 0xFF	; 255
    2c50:	82 e5       	ldi	r24, 0x52	; 82
    2c52:	97 e0       	ldi	r25, 0x07	; 7
    2c54:	21 50       	subi	r18, 0x01	; 1
    2c56:	80 40       	sbci	r24, 0x00	; 0
    2c58:	90 40       	sbci	r25, 0x00	; 0
    2c5a:	e1 f7       	brne	.-8      	; 0x2c54 <_ZN7MPU60504InitEv+0x6>
    2c5c:	00 c0       	rjmp	.+0      	; 0x2c5e <_ZN7MPU60504InitEv+0x10>
    2c5e:	00 00       	nop
    2c60:	80 ed       	ldi	r24, 0xD0	; 208
    2c62:	aa d3       	rcall	.+1876   	; 0x33b8 <_Z9i2c_starth>
    2c64:	8b e6       	ldi	r24, 0x6B	; 107
    2c66:	15 d4       	rcall	.+2090   	; 0x3492 <_Z9i2c_writeh>
    2c68:	80 e0       	ldi	r24, 0x00	; 0
    2c6a:	13 d4       	rcall	.+2086   	; 0x3492 <_Z9i2c_writeh>
    2c6c:	ce d3       	rcall	.+1948   	; 0x340a <_Z8i2c_stopv>
    2c6e:	80 ed       	ldi	r24, 0xD0	; 208
    2c70:	a3 d3       	rcall	.+1862   	; 0x33b8 <_Z9i2c_starth>
    2c72:	89 e1       	ldi	r24, 0x19	; 25
    2c74:	0e d4       	rcall	.+2076   	; 0x3492 <_Z9i2c_writeh>
    2c76:	89 e1       	ldi	r24, 0x19	; 25
    2c78:	0c d4       	rcall	.+2072   	; 0x3492 <_Z9i2c_writeh>
    2c7a:	c7 d3       	rcall	.+1934   	; 0x340a <_Z8i2c_stopv>
    2c7c:	80 ed       	ldi	r24, 0xD0	; 208
    2c7e:	9c d3       	rcall	.+1848   	; 0x33b8 <_Z9i2c_starth>
    2c80:	8a e1       	ldi	r24, 0x1A	; 26
    2c82:	07 d4       	rcall	.+2062   	; 0x3492 <_Z9i2c_writeh>
    2c84:	80 e0       	ldi	r24, 0x00	; 0
    2c86:	05 d4       	rcall	.+2058   	; 0x3492 <_Z9i2c_writeh>
    2c88:	c0 d3       	rcall	.+1920   	; 0x340a <_Z8i2c_stopv>
    2c8a:	80 ed       	ldi	r24, 0xD0	; 208
    2c8c:	95 d3       	rcall	.+1834   	; 0x33b8 <_Z9i2c_starth>
    2c8e:	8b e1       	ldi	r24, 0x1B	; 27
    2c90:	00 d4       	rcall	.+2048   	; 0x3492 <_Z9i2c_writeh>
    2c92:	80 e0       	ldi	r24, 0x00	; 0
    2c94:	fe d3       	rcall	.+2044   	; 0x3492 <_Z9i2c_writeh>
    2c96:	b9 d3       	rcall	.+1906   	; 0x340a <_Z8i2c_stopv>
    2c98:	80 ed       	ldi	r24, 0xD0	; 208
    2c9a:	8e d3       	rcall	.+1820   	; 0x33b8 <_Z9i2c_starth>
    2c9c:	88 e3       	ldi	r24, 0x38	; 56
    2c9e:	f9 d3       	rcall	.+2034   	; 0x3492 <_Z9i2c_writeh>
    2ca0:	81 e0       	ldi	r24, 0x01	; 1
    2ca2:	f7 d3       	rcall	.+2030   	; 0x3492 <_Z9i2c_writeh>
    2ca4:	b2 d3       	rcall	.+1892   	; 0x340a <_Z8i2c_stopv>
    2ca6:	80 ed       	ldi	r24, 0xD0	; 208
    2ca8:	87 d3       	rcall	.+1806   	; 0x33b8 <_Z9i2c_starth>
    2caa:	8c e1       	ldi	r24, 0x1C	; 28
    2cac:	f2 d3       	rcall	.+2020   	; 0x3492 <_Z9i2c_writeh>
    2cae:	80 e0       	ldi	r24, 0x00	; 0
    2cb0:	f0 d3       	rcall	.+2016   	; 0x3492 <_Z9i2c_writeh>
    2cb2:	ab c3       	rjmp	.+1878   	; 0x340a <_Z8i2c_stopv>
    2cb4:	08 95       	ret

00002cb6 <_ZN7MPU605017startReadLocationEh>:
    2cb6:	cf 93       	push	r28
    2cb8:	c6 2f       	mov	r28, r22
    2cba:	80 ed       	ldi	r24, 0xD0	; 208
    2cbc:	af d3       	rcall	.+1886   	; 0x341c <_Z14i2c_start_waith>
    2cbe:	8c 2f       	mov	r24, r28
    2cc0:	e8 d3       	rcall	.+2000   	; 0x3492 <_Z9i2c_writeh>
    2cc2:	81 ed       	ldi	r24, 0xD1	; 209
    2cc4:	a0 d3       	rcall	.+1856   	; 0x3406 <_Z13i2c_rep_starth>
    2cc6:	cf 91       	pop	r28
    2cc8:	08 95       	ret

00002cca <_ZN7MPU605012readRawAccelEv>:
    2cca:	af 92       	push	r10
    2ccc:	bf 92       	push	r11
    2cce:	cf 92       	push	r12
    2cd0:	df 92       	push	r13
    2cd2:	ef 92       	push	r14
    2cd4:	ff 92       	push	r15
    2cd6:	0f 93       	push	r16
    2cd8:	1f 93       	push	r17
    2cda:	cf 93       	push	r28
    2cdc:	df 93       	push	r29
    2cde:	8c 01       	movw	r16, r24
    2ce0:	eb 01       	movw	r28, r22
    2ce2:	6b e3       	ldi	r22, 0x3B	; 59
    2ce4:	ce 01       	movw	r24, r28
    2ce6:	e7 df       	rcall	.-50     	; 0x2cb6 <_ZN7MPU605017startReadLocationEh>
    2ce8:	e6 d3       	rcall	.+1996   	; 0x34b6 <_Z11i2c_readAckv>
    2cea:	a8 2e       	mov	r10, r24
    2cec:	e4 d3       	rcall	.+1992   	; 0x34b6 <_Z11i2c_readAckv>
    2cee:	b8 2e       	mov	r11, r24
    2cf0:	e2 d3       	rcall	.+1988   	; 0x34b6 <_Z11i2c_readAckv>
    2cf2:	c8 2e       	mov	r12, r24
    2cf4:	e0 d3       	rcall	.+1984   	; 0x34b6 <_Z11i2c_readAckv>
    2cf6:	e8 2e       	mov	r14, r24
    2cf8:	de d3       	rcall	.+1980   	; 0x34b6 <_Z11i2c_readAckv>
    2cfa:	d8 2e       	mov	r13, r24
    2cfc:	e7 d3       	rcall	.+1998   	; 0x34cc <_Z11i2c_readNakv>
    2cfe:	f8 2e       	mov	r15, r24
    2d00:	6b 2d       	mov	r22, r11
    2d02:	70 e0       	ldi	r23, 0x00	; 0
    2d04:	7a 29       	or	r23, r10
    2d06:	07 2e       	mov	r0, r23
    2d08:	00 0c       	add	r0, r0
    2d0a:	88 0b       	sbc	r24, r24
    2d0c:	99 0b       	sbc	r25, r25
    2d0e:	79 d7       	rcall	.+3826   	; 0x3c02 <__floatsisf>
    2d10:	fe 01       	movw	r30, r28
    2d12:	e8 5b       	subi	r30, 0xB8	; 184
    2d14:	ff 4f       	sbci	r31, 0xFF	; 255
    2d16:	20 81       	ld	r18, Z
    2d18:	31 81       	ldd	r19, Z+1	; 0x01
    2d1a:	42 81       	ldd	r20, Z+2	; 0x02
    2d1c:	53 81       	ldd	r21, Z+3	; 0x03
    2d1e:	08 d6       	rcall	.+3088   	; 0x3930 <__subsf3>
    2d20:	68 83       	st	Y, r22
    2d22:	79 83       	std	Y+1, r23	; 0x01
    2d24:	8a 83       	std	Y+2, r24	; 0x02
    2d26:	9b 83       	std	Y+3, r25	; 0x03
    2d28:	6e 2d       	mov	r22, r14
    2d2a:	70 e0       	ldi	r23, 0x00	; 0
    2d2c:	7c 29       	or	r23, r12
    2d2e:	07 2e       	mov	r0, r23
    2d30:	00 0c       	add	r0, r0
    2d32:	88 0b       	sbc	r24, r24
    2d34:	99 0b       	sbc	r25, r25
    2d36:	65 d7       	rcall	.+3786   	; 0x3c02 <__floatsisf>
    2d38:	fe 01       	movw	r30, r28
    2d3a:	e4 5b       	subi	r30, 0xB4	; 180
    2d3c:	ff 4f       	sbci	r31, 0xFF	; 255
    2d3e:	20 81       	ld	r18, Z
    2d40:	31 81       	ldd	r19, Z+1	; 0x01
    2d42:	42 81       	ldd	r20, Z+2	; 0x02
    2d44:	53 81       	ldd	r21, Z+3	; 0x03
    2d46:	f4 d5       	rcall	.+3048   	; 0x3930 <__subsf3>
    2d48:	6c 83       	std	Y+4, r22	; 0x04
    2d4a:	7d 83       	std	Y+5, r23	; 0x05
    2d4c:	8e 83       	std	Y+6, r24	; 0x06
    2d4e:	9f 83       	std	Y+7, r25	; 0x07
    2d50:	6f 2d       	mov	r22, r15
    2d52:	70 e0       	ldi	r23, 0x00	; 0
    2d54:	7d 29       	or	r23, r13
    2d56:	07 2e       	mov	r0, r23
    2d58:	00 0c       	add	r0, r0
    2d5a:	88 0b       	sbc	r24, r24
    2d5c:	99 0b       	sbc	r25, r25
    2d5e:	51 d7       	rcall	.+3746   	; 0x3c02 <__floatsisf>
    2d60:	68 87       	std	Y+8, r22	; 0x08
    2d62:	79 87       	std	Y+9, r23	; 0x09
    2d64:	8a 87       	std	Y+10, r24	; 0x0a
    2d66:	9b 87       	std	Y+11, r25	; 0x0b
    2d68:	50 d3       	rcall	.+1696   	; 0x340a <_Z8i2c_stopv>
    2d6a:	8c e0       	ldi	r24, 0x0C	; 12
    2d6c:	fe 01       	movw	r30, r28
    2d6e:	d8 01       	movw	r26, r16
    2d70:	01 90       	ld	r0, Z+
    2d72:	0d 92       	st	X+, r0
    2d74:	8a 95       	dec	r24
    2d76:	e1 f7       	brne	.-8      	; 0x2d70 <_ZN7MPU605012readRawAccelEv+0xa6>
    2d78:	c8 01       	movw	r24, r16
    2d7a:	df 91       	pop	r29
    2d7c:	cf 91       	pop	r28
    2d7e:	1f 91       	pop	r17
    2d80:	0f 91       	pop	r16
    2d82:	ff 90       	pop	r15
    2d84:	ef 90       	pop	r14
    2d86:	df 90       	pop	r13
    2d88:	cf 90       	pop	r12
    2d8a:	bf 90       	pop	r11
    2d8c:	af 90       	pop	r10
    2d8e:	08 95       	ret

00002d90 <_ZN7MPU605018readNormalizeAccelEv>:
    2d90:	af 92       	push	r10
    2d92:	bf 92       	push	r11
    2d94:	cf 92       	push	r12
    2d96:	df 92       	push	r13
    2d98:	ef 92       	push	r14
    2d9a:	ff 92       	push	r15
    2d9c:	0f 93       	push	r16
    2d9e:	1f 93       	push	r17
    2da0:	cf 93       	push	r28
    2da2:	df 93       	push	r29
    2da4:	cd b7       	in	r28, 0x3d	; 61
    2da6:	de b7       	in	r29, 0x3e	; 62
    2da8:	2c 97       	sbiw	r28, 0x0c	; 12
    2daa:	0f b6       	in	r0, 0x3f	; 63
    2dac:	f8 94       	cli
    2dae:	de bf       	out	0x3e, r29	; 62
    2db0:	0f be       	out	0x3f, r0	; 63
    2db2:	cd bf       	out	0x3d, r28	; 61
    2db4:	5c 01       	movw	r10, r24
    2db6:	8b 01       	movw	r16, r22
    2db8:	ce 01       	movw	r24, r28
    2dba:	01 96       	adiw	r24, 0x01	; 1
    2dbc:	86 df       	rcall	.-244    	; 0x2cca <_ZN7MPU605012readRawAccelEv>
    2dbe:	f8 01       	movw	r30, r16
    2dc0:	e0 59       	subi	r30, 0x90	; 144
    2dc2:	ff 4f       	sbci	r31, 0xFF	; 255
    2dc4:	c0 80       	ld	r12, Z
    2dc6:	d1 80       	ldd	r13, Z+1	; 0x01
    2dc8:	e2 80       	ldd	r14, Z+2	; 0x02
    2dca:	f3 80       	ldd	r15, Z+3	; 0x03
    2dcc:	a7 01       	movw	r20, r14
    2dce:	96 01       	movw	r18, r12
    2dd0:	f8 01       	movw	r30, r16
    2dd2:	60 81       	ld	r22, Z
    2dd4:	71 81       	ldd	r23, Z+1	; 0x01
    2dd6:	82 81       	ldd	r24, Z+2	; 0x02
    2dd8:	93 81       	ldd	r25, Z+3	; 0x03
    2dda:	0e 94 1a 1f 	call	0x3e34	; 0x3e34 <__mulsf3>
    2dde:	f8 01       	movw	r30, r16
    2de0:	60 8f       	std	Z+24, r22	; 0x18
    2de2:	71 8f       	std	Z+25, r23	; 0x19
    2de4:	82 8f       	std	Z+26, r24	; 0x1a
    2de6:	93 8f       	std	Z+27, r25	; 0x1b
    2de8:	a7 01       	movw	r20, r14
    2dea:	96 01       	movw	r18, r12
    2dec:	64 81       	ldd	r22, Z+4	; 0x04
    2dee:	75 81       	ldd	r23, Z+5	; 0x05
    2df0:	86 81       	ldd	r24, Z+6	; 0x06
    2df2:	97 81       	ldd	r25, Z+7	; 0x07
    2df4:	0e 94 1a 1f 	call	0x3e34	; 0x3e34 <__mulsf3>
    2df8:	f8 01       	movw	r30, r16
    2dfa:	64 8f       	std	Z+28, r22	; 0x1c
    2dfc:	75 8f       	std	Z+29, r23	; 0x1d
    2dfe:	86 8f       	std	Z+30, r24	; 0x1e
    2e00:	97 8f       	std	Z+31, r25	; 0x1f
    2e02:	a7 01       	movw	r20, r14
    2e04:	96 01       	movw	r18, r12
    2e06:	60 85       	ldd	r22, Z+8	; 0x08
    2e08:	71 85       	ldd	r23, Z+9	; 0x09
    2e0a:	82 85       	ldd	r24, Z+10	; 0x0a
    2e0c:	93 85       	ldd	r25, Z+11	; 0x0b
    2e0e:	0e 94 1a 1f 	call	0x3e34	; 0x3e34 <__mulsf3>
    2e12:	f8 01       	movw	r30, r16
    2e14:	60 a3       	std	Z+32, r22	; 0x20
    2e16:	71 a3       	std	Z+33, r23	; 0x21
    2e18:	82 a3       	std	Z+34, r24	; 0x22
    2e1a:	93 a3       	std	Z+35, r25	; 0x23
    2e1c:	8c e0       	ldi	r24, 0x0C	; 12
    2e1e:	78 96       	adiw	r30, 0x18	; 24
    2e20:	d5 01       	movw	r26, r10
    2e22:	01 90       	ld	r0, Z+
    2e24:	0d 92       	st	X+, r0
    2e26:	8a 95       	dec	r24
    2e28:	e1 f7       	brne	.-8      	; 0x2e22 <_ZN7MPU605018readNormalizeAccelEv+0x92>
    2e2a:	c5 01       	movw	r24, r10
    2e2c:	2c 96       	adiw	r28, 0x0c	; 12
    2e2e:	0f b6       	in	r0, 0x3f	; 63
    2e30:	f8 94       	cli
    2e32:	de bf       	out	0x3e, r29	; 62
    2e34:	0f be       	out	0x3f, r0	; 63
    2e36:	cd bf       	out	0x3d, r28	; 61
    2e38:	df 91       	pop	r29
    2e3a:	cf 91       	pop	r28
    2e3c:	1f 91       	pop	r17
    2e3e:	0f 91       	pop	r16
    2e40:	ff 90       	pop	r15
    2e42:	ef 90       	pop	r14
    2e44:	df 90       	pop	r13
    2e46:	cf 90       	pop	r12
    2e48:	bf 90       	pop	r11
    2e4a:	af 90       	pop	r10
    2e4c:	08 95       	ret

00002e4e <_ZN7MPU605011readRawGyroEv>:
    2e4e:	ff 92       	push	r15
    2e50:	0f 93       	push	r16
    2e52:	1f 93       	push	r17
    2e54:	cf 93       	push	r28
    2e56:	df 93       	push	r29
    2e58:	8c 01       	movw	r16, r24
    2e5a:	eb 01       	movw	r28, r22
    2e5c:	63 e4       	ldi	r22, 0x43	; 67
    2e5e:	ce 01       	movw	r24, r28
    2e60:	2a df       	rcall	.-428    	; 0x2cb6 <_ZN7MPU605017startReadLocationEh>
    2e62:	29 d3       	rcall	.+1618   	; 0x34b6 <_Z11i2c_readAckv>
    2e64:	f8 2e       	mov	r15, r24
    2e66:	27 d3       	rcall	.+1614   	; 0x34b6 <_Z11i2c_readAckv>
    2e68:	6f 2d       	mov	r22, r15
    2e6a:	70 e0       	ldi	r23, 0x00	; 0
    2e6c:	76 2f       	mov	r23, r22
    2e6e:	66 27       	eor	r22, r22
    2e70:	68 2b       	or	r22, r24
    2e72:	07 2e       	mov	r0, r23
    2e74:	00 0c       	add	r0, r0
    2e76:	88 0b       	sbc	r24, r24
    2e78:	99 0b       	sbc	r25, r25
    2e7a:	c3 d6       	rcall	.+3462   	; 0x3c02 <__floatsisf>
    2e7c:	6c 87       	std	Y+12, r22	; 0x0c
    2e7e:	7d 87       	std	Y+13, r23	; 0x0d
    2e80:	8e 87       	std	Y+14, r24	; 0x0e
    2e82:	9f 87       	std	Y+15, r25	; 0x0f
    2e84:	18 d3       	rcall	.+1584   	; 0x34b6 <_Z11i2c_readAckv>
    2e86:	f8 2e       	mov	r15, r24
    2e88:	16 d3       	rcall	.+1580   	; 0x34b6 <_Z11i2c_readAckv>
    2e8a:	6f 2d       	mov	r22, r15
    2e8c:	70 e0       	ldi	r23, 0x00	; 0
    2e8e:	76 2f       	mov	r23, r22
    2e90:	66 27       	eor	r22, r22
    2e92:	68 2b       	or	r22, r24
    2e94:	07 2e       	mov	r0, r23
    2e96:	00 0c       	add	r0, r0
    2e98:	88 0b       	sbc	r24, r24
    2e9a:	99 0b       	sbc	r25, r25
    2e9c:	b2 d6       	rcall	.+3428   	; 0x3c02 <__floatsisf>
    2e9e:	68 8b       	std	Y+16, r22	; 0x10
    2ea0:	79 8b       	std	Y+17, r23	; 0x11
    2ea2:	8a 8b       	std	Y+18, r24	; 0x12
    2ea4:	9b 8b       	std	Y+19, r25	; 0x13
    2ea6:	07 d3       	rcall	.+1550   	; 0x34b6 <_Z11i2c_readAckv>
    2ea8:	f8 2e       	mov	r15, r24
    2eaa:	10 d3       	rcall	.+1568   	; 0x34cc <_Z11i2c_readNakv>
    2eac:	6f 2d       	mov	r22, r15
    2eae:	70 e0       	ldi	r23, 0x00	; 0
    2eb0:	76 2f       	mov	r23, r22
    2eb2:	66 27       	eor	r22, r22
    2eb4:	68 2b       	or	r22, r24
    2eb6:	07 2e       	mov	r0, r23
    2eb8:	00 0c       	add	r0, r0
    2eba:	88 0b       	sbc	r24, r24
    2ebc:	99 0b       	sbc	r25, r25
    2ebe:	a1 d6       	rcall	.+3394   	; 0x3c02 <__floatsisf>
    2ec0:	6c 8b       	std	Y+20, r22	; 0x14
    2ec2:	7d 8b       	std	Y+21, r23	; 0x15
    2ec4:	8e 8b       	std	Y+22, r24	; 0x16
    2ec6:	9f 8b       	std	Y+23, r25	; 0x17
    2ec8:	a0 d2       	rcall	.+1344   	; 0x340a <_Z8i2c_stopv>
    2eca:	8c e0       	ldi	r24, 0x0C	; 12
    2ecc:	fe 01       	movw	r30, r28
    2ece:	3c 96       	adiw	r30, 0x0c	; 12
    2ed0:	d8 01       	movw	r26, r16
    2ed2:	01 90       	ld	r0, Z+
    2ed4:	0d 92       	st	X+, r0
    2ed6:	8a 95       	dec	r24
    2ed8:	e1 f7       	brne	.-8      	; 0x2ed2 <_ZN7MPU605011readRawGyroEv+0x84>
    2eda:	c8 01       	movw	r24, r16
    2edc:	df 91       	pop	r29
    2ede:	cf 91       	pop	r28
    2ee0:	1f 91       	pop	r17
    2ee2:	0f 91       	pop	r16
    2ee4:	ff 90       	pop	r15
    2ee6:	08 95       	ret

00002ee8 <_ZN7MPU605012setThresholdEh>:

// Set treshold value
void MPU6050::setThreshold(uint8_t multiple)
{
    2ee8:	cf 92       	push	r12
    2eea:	df 92       	push	r13
    2eec:	ef 92       	push	r14
    2eee:	ff 92       	push	r15
    2ef0:	1f 93       	push	r17
    2ef2:	cf 93       	push	r28
    2ef4:	df 93       	push	r29
    2ef6:	ec 01       	movw	r28, r24
    2ef8:	16 2f       	mov	r17, r22
	if (multiple > 0)
    2efa:	66 23       	and	r22, r22
    2efc:	09 f4       	brne	.+2      	; 0x2f00 <_ZN7MPU605012setThresholdEh+0x18>
    2efe:	3b c0       	rjmp	.+118    	; 0x2f76 <_ZN7MPU605012setThresholdEh+0x8e>
	{
		// If not calibrated, need calibrate
		if (!useCalibrate)
    2f00:	fc 01       	movw	r30, r24
    2f02:	e8 58       	subi	r30, 0x88	; 136
    2f04:	ff 4f       	sbci	r31, 0xFF	; 255
    2f06:	80 81       	ld	r24, Z
    2f08:	81 11       	cpse	r24, r1
    2f0a:	03 c0       	rjmp	.+6      	; 0x2f12 <_ZN7MPU605012setThresholdEh+0x2a>
		{
			calibrateGyro();
    2f0c:	62 e3       	ldi	r22, 0x32	; 50
    2f0e:	ce 01       	movw	r24, r28
    2f10:	51 d0       	rcall	.+162    	; 0x2fb4 <_ZN7MPU605013calibrateGyroEh>
		}

		// Calculate threshold vectors
		tg.XAxis = th.XAxis * multiple;
    2f12:	61 2f       	mov	r22, r17
    2f14:	70 e0       	ldi	r23, 0x00	; 0
    2f16:	80 e0       	ldi	r24, 0x00	; 0
    2f18:	90 e0       	ldi	r25, 0x00	; 0
    2f1a:	73 d6       	rcall	.+3302   	; 0x3c02 <__floatsisf>
    2f1c:	6b 01       	movw	r12, r22
    2f1e:	7c 01       	movw	r14, r24
    2f20:	9b 01       	movw	r18, r22
    2f22:	ac 01       	movw	r20, r24
    2f24:	fe 01       	movw	r30, r28
    2f26:	ec 5a       	subi	r30, 0xAC	; 172
    2f28:	ff 4f       	sbci	r31, 0xFF	; 255
    2f2a:	60 81       	ld	r22, Z
    2f2c:	71 81       	ldd	r23, Z+1	; 0x01
    2f2e:	82 81       	ldd	r24, Z+2	; 0x02
    2f30:	93 81       	ldd	r25, Z+3	; 0x03
    2f32:	80 d7       	rcall	.+3840   	; 0x3e34 <__mulsf3>
    2f34:	68 ab       	std	Y+48, r22	; 0x30
    2f36:	79 ab       	std	Y+49, r23	; 0x31
    2f38:	8a ab       	std	Y+50, r24	; 0x32
    2f3a:	9b ab       	std	Y+51, r25	; 0x33
		tg.YAxis = th.YAxis * multiple;
    2f3c:	a7 01       	movw	r20, r14
    2f3e:	96 01       	movw	r18, r12
    2f40:	fe 01       	movw	r30, r28
    2f42:	e8 5a       	subi	r30, 0xA8	; 168
    2f44:	ff 4f       	sbci	r31, 0xFF	; 255
    2f46:	60 81       	ld	r22, Z
    2f48:	71 81       	ldd	r23, Z+1	; 0x01
    2f4a:	82 81       	ldd	r24, Z+2	; 0x02
    2f4c:	93 81       	ldd	r25, Z+3	; 0x03
    2f4e:	72 d7       	rcall	.+3812   	; 0x3e34 <__mulsf3>
    2f50:	6c ab       	std	Y+52, r22	; 0x34
    2f52:	7d ab       	std	Y+53, r23	; 0x35
    2f54:	8e ab       	std	Y+54, r24	; 0x36
    2f56:	9f ab       	std	Y+55, r25	; 0x37
		tg.ZAxis = th.ZAxis * multiple;
    2f58:	a7 01       	movw	r20, r14
    2f5a:	96 01       	movw	r18, r12
    2f5c:	fe 01       	movw	r30, r28
    2f5e:	e4 5a       	subi	r30, 0xA4	; 164
    2f60:	ff 4f       	sbci	r31, 0xFF	; 255
    2f62:	60 81       	ld	r22, Z
    2f64:	71 81       	ldd	r23, Z+1	; 0x01
    2f66:	82 81       	ldd	r24, Z+2	; 0x02
    2f68:	93 81       	ldd	r25, Z+3	; 0x03
    2f6a:	64 d7       	rcall	.+3784   	; 0x3e34 <__mulsf3>
    2f6c:	68 af       	std	Y+56, r22	; 0x38
    2f6e:	79 af       	std	Y+57, r23	; 0x39
    2f70:	8a af       	std	Y+58, r24	; 0x3a
    2f72:	9b af       	std	Y+59, r25	; 0x3b
    2f74:	0c c0       	rjmp	.+24     	; 0x2f8e <_ZN7MPU605012setThresholdEh+0xa6>
	} else
	{
		// No threshold
		tg.XAxis = 0;
    2f76:	18 aa       	std	Y+48, r1	; 0x30
    2f78:	19 aa       	std	Y+49, r1	; 0x31
    2f7a:	1a aa       	std	Y+50, r1	; 0x32
    2f7c:	1b aa       	std	Y+51, r1	; 0x33
		tg.YAxis = 0;
    2f7e:	1c aa       	std	Y+52, r1	; 0x34
    2f80:	1d aa       	std	Y+53, r1	; 0x35
    2f82:	1e aa       	std	Y+54, r1	; 0x36
    2f84:	1f aa       	std	Y+55, r1	; 0x37
		tg.ZAxis = 0;
    2f86:	18 ae       	std	Y+56, r1	; 0x38
    2f88:	19 ae       	std	Y+57, r1	; 0x39
    2f8a:	1a ae       	std	Y+58, r1	; 0x3a
    2f8c:	1b ae       	std	Y+59, r1	; 0x3b
	}

	// Remember old threshold value
	actualThreshold = multiple;
    2f8e:	cc 58       	subi	r28, 0x8C	; 140
    2f90:	df 4f       	sbci	r29, 0xFF	; 255
    2f92:	61 2f       	mov	r22, r17
    2f94:	70 e0       	ldi	r23, 0x00	; 0
    2f96:	80 e0       	ldi	r24, 0x00	; 0
    2f98:	90 e0       	ldi	r25, 0x00	; 0
    2f9a:	31 d6       	rcall	.+3170   	; 0x3bfe <__floatunsisf>
    2f9c:	68 83       	st	Y, r22
    2f9e:	79 83       	std	Y+1, r23	; 0x01
    2fa0:	8a 83       	std	Y+2, r24	; 0x02
    2fa2:	9b 83       	std	Y+3, r25	; 0x03
}
    2fa4:	df 91       	pop	r29
    2fa6:	cf 91       	pop	r28
    2fa8:	1f 91       	pop	r17
    2faa:	ff 90       	pop	r15
    2fac:	ef 90       	pop	r14
    2fae:	df 90       	pop	r13
    2fb0:	cf 90       	pop	r12
    2fb2:	08 95       	ret

00002fb4 <_ZN7MPU605013calibrateGyroEh>:
	offsetAccelero.XAxis = sumX / samples;
	offsetAccelero.YAxis = sumY / samples;
}

void MPU6050::calibrateGyro(uint8_t samples)
{
    2fb4:	2f 92       	push	r2
    2fb6:	3f 92       	push	r3
    2fb8:	4f 92       	push	r4
    2fba:	5f 92       	push	r5
    2fbc:	6f 92       	push	r6
    2fbe:	7f 92       	push	r7
    2fc0:	8f 92       	push	r8
    2fc2:	9f 92       	push	r9
    2fc4:	af 92       	push	r10
    2fc6:	bf 92       	push	r11
    2fc8:	cf 92       	push	r12
    2fca:	df 92       	push	r13
    2fcc:	ef 92       	push	r14
    2fce:	ff 92       	push	r15
    2fd0:	0f 93       	push	r16
    2fd2:	1f 93       	push	r17
    2fd4:	cf 93       	push	r28
    2fd6:	df 93       	push	r29
    2fd8:	cd b7       	in	r28, 0x3d	; 61
    2fda:	de b7       	in	r29, 0x3e	; 62
    2fdc:	a4 97       	sbiw	r28, 0x24	; 36
    2fde:	0f b6       	in	r0, 0x3f	; 63
    2fe0:	f8 94       	cli
    2fe2:	de bf       	out	0x3e, r29	; 62
    2fe4:	0f be       	out	0x3f, r0	; 63
    2fe6:	cd bf       	out	0x3d, r28	; 61
    2fe8:	1c 01       	movw	r2, r24
    2fea:	06 2f       	mov	r16, r22
	// Set calibrate
	useCalibrate = true;
    2fec:	fc 01       	movw	r30, r24
    2fee:	e8 58       	subi	r30, 0x88	; 136
    2ff0:	ff 4f       	sbci	r31, 0xFF	; 255
    2ff2:	81 e0       	ldi	r24, 0x01	; 1
    2ff4:	80 83       	st	Z, r24
	float sigmaX = 0;
	float sigmaY = 0;
	float sigmaZ = 0;

	// Read n-samples
	for (uint8_t i = 0; i < samples; ++i)
    2ff6:	66 23       	and	r22, r22
    2ff8:	09 f4       	brne	.+2      	; 0x2ffc <_ZN7MPU605013calibrateGyroEh+0x48>
    2ffa:	87 c0       	rjmp	.+270    	; 0x310a <_ZN7MPU605013calibrateGyroEh+0x156>
    2ffc:	10 e0       	ldi	r17, 0x00	; 0
    2ffe:	19 8e       	std	Y+25, r1	; 0x19
    3000:	1a 8e       	std	Y+26, r1	; 0x1a
    3002:	1b 8e       	std	Y+27, r1	; 0x1b
    3004:	1c 8e       	std	Y+28, r1	; 0x1c
    3006:	1d 8a       	std	Y+21, r1	; 0x15
    3008:	1e 8a       	std	Y+22, r1	; 0x16
    300a:	1f 8a       	std	Y+23, r1	; 0x17
    300c:	18 8e       	std	Y+24, r1	; 0x18
    300e:	1d 86       	std	Y+13, r1	; 0x0d
    3010:	1e 86       	std	Y+14, r1	; 0x0e
    3012:	1f 86       	std	Y+15, r1	; 0x0f
    3014:	18 8a       	std	Y+16, r1	; 0x10
    3016:	19 a2       	std	Y+33, r1	; 0x21
    3018:	1a a2       	std	Y+34, r1	; 0x22
    301a:	1b a2       	std	Y+35, r1	; 0x23
    301c:	1c a2       	std	Y+36, r1	; 0x24
    301e:	1d 8e       	std	Y+29, r1	; 0x1d
    3020:	1e 8e       	std	Y+30, r1	; 0x1e
    3022:	1f 8e       	std	Y+31, r1	; 0x1f
    3024:	18 a2       	std	Y+32, r1	; 0x20
    3026:	19 8a       	std	Y+17, r1	; 0x11
    3028:	1a 8a       	std	Y+18, r1	; 0x12
    302a:	1b 8a       	std	Y+19, r1	; 0x13
    302c:	1c 8a       	std	Y+20, r1	; 0x14
	{
		readRawGyro();
    302e:	b1 01       	movw	r22, r2
    3030:	ce 01       	movw	r24, r28
    3032:	01 96       	adiw	r24, 0x01	; 1
    3034:	0c df       	rcall	.-488    	; 0x2e4e <_ZN7MPU605011readRawGyroEv>
		sumX += rg.XAxis;
    3036:	f1 01       	movw	r30, r2
    3038:	44 84       	ldd	r4, Z+12	; 0x0c
    303a:	55 84       	ldd	r5, Z+13	; 0x0d
    303c:	66 84       	ldd	r6, Z+14	; 0x0e
    303e:	77 84       	ldd	r7, Z+15	; 0x0f
    3040:	a3 01       	movw	r20, r6
    3042:	92 01       	movw	r18, r4
    3044:	69 89       	ldd	r22, Y+17	; 0x11
    3046:	7a 89       	ldd	r23, Y+18	; 0x12
    3048:	8b 89       	ldd	r24, Y+19	; 0x13
    304a:	9c 89       	ldd	r25, Y+20	; 0x14
    304c:	72 d4       	rcall	.+2276   	; 0x3932 <__addsf3>
    304e:	69 8b       	std	Y+17, r22	; 0x11
    3050:	7a 8b       	std	Y+18, r23	; 0x12
    3052:	8b 8b       	std	Y+19, r24	; 0x13
    3054:	9c 8b       	std	Y+20, r25	; 0x14
		sumY += rg.YAxis;
    3056:	f1 01       	movw	r30, r2
    3058:	80 88       	ldd	r8, Z+16	; 0x10
    305a:	91 88       	ldd	r9, Z+17	; 0x11
    305c:	a2 88       	ldd	r10, Z+18	; 0x12
    305e:	b3 88       	ldd	r11, Z+19	; 0x13
    3060:	a5 01       	movw	r20, r10
    3062:	94 01       	movw	r18, r8
    3064:	6d 8d       	ldd	r22, Y+29	; 0x1d
    3066:	7e 8d       	ldd	r23, Y+30	; 0x1e
    3068:	8f 8d       	ldd	r24, Y+31	; 0x1f
    306a:	98 a1       	ldd	r25, Y+32	; 0x20
    306c:	62 d4       	rcall	.+2244   	; 0x3932 <__addsf3>
    306e:	6d 8f       	std	Y+29, r22	; 0x1d
    3070:	7e 8f       	std	Y+30, r23	; 0x1e
    3072:	8f 8f       	std	Y+31, r24	; 0x1f
    3074:	98 a3       	std	Y+32, r25	; 0x20
		sumZ += rg.ZAxis;
    3076:	f1 01       	movw	r30, r2
    3078:	c4 88       	ldd	r12, Z+20	; 0x14
    307a:	d5 88       	ldd	r13, Z+21	; 0x15
    307c:	e6 88       	ldd	r14, Z+22	; 0x16
    307e:	f7 88       	ldd	r15, Z+23	; 0x17
    3080:	a7 01       	movw	r20, r14
    3082:	96 01       	movw	r18, r12
    3084:	69 a1       	ldd	r22, Y+33	; 0x21
    3086:	7a a1       	ldd	r23, Y+34	; 0x22
    3088:	8b a1       	ldd	r24, Y+35	; 0x23
    308a:	9c a1       	ldd	r25, Y+36	; 0x24
    308c:	52 d4       	rcall	.+2212   	; 0x3932 <__addsf3>
    308e:	69 a3       	std	Y+33, r22	; 0x21
    3090:	7a a3       	std	Y+34, r23	; 0x22
    3092:	8b a3       	std	Y+35, r24	; 0x23
    3094:	9c a3       	std	Y+36, r25	; 0x24

		sigmaX += rg.XAxis * rg.XAxis;
    3096:	a3 01       	movw	r20, r6
    3098:	92 01       	movw	r18, r4
    309a:	c3 01       	movw	r24, r6
    309c:	b2 01       	movw	r22, r4
    309e:	ca d6       	rcall	.+3476   	; 0x3e34 <__mulsf3>
    30a0:	9b 01       	movw	r18, r22
    30a2:	ac 01       	movw	r20, r24
    30a4:	6d 85       	ldd	r22, Y+13	; 0x0d
    30a6:	7e 85       	ldd	r23, Y+14	; 0x0e
    30a8:	8f 85       	ldd	r24, Y+15	; 0x0f
    30aa:	98 89       	ldd	r25, Y+16	; 0x10
    30ac:	42 d4       	rcall	.+2180   	; 0x3932 <__addsf3>
    30ae:	6d 87       	std	Y+13, r22	; 0x0d
    30b0:	7e 87       	std	Y+14, r23	; 0x0e
    30b2:	8f 87       	std	Y+15, r24	; 0x0f
    30b4:	98 8b       	std	Y+16, r25	; 0x10
		sigmaY += rg.YAxis * rg.YAxis;
    30b6:	a5 01       	movw	r20, r10
    30b8:	94 01       	movw	r18, r8
    30ba:	c5 01       	movw	r24, r10
    30bc:	b4 01       	movw	r22, r8
    30be:	ba d6       	rcall	.+3444   	; 0x3e34 <__mulsf3>
    30c0:	9b 01       	movw	r18, r22
    30c2:	ac 01       	movw	r20, r24
    30c4:	6d 89       	ldd	r22, Y+21	; 0x15
    30c6:	7e 89       	ldd	r23, Y+22	; 0x16
    30c8:	8f 89       	ldd	r24, Y+23	; 0x17
    30ca:	98 8d       	ldd	r25, Y+24	; 0x18
    30cc:	32 d4       	rcall	.+2148   	; 0x3932 <__addsf3>
    30ce:	6d 8b       	std	Y+21, r22	; 0x15
    30d0:	7e 8b       	std	Y+22, r23	; 0x16
    30d2:	8f 8b       	std	Y+23, r24	; 0x17
    30d4:	98 8f       	std	Y+24, r25	; 0x18
		sigmaZ += rg.ZAxis * rg.ZAxis;
    30d6:	a7 01       	movw	r20, r14
    30d8:	96 01       	movw	r18, r12
    30da:	c7 01       	movw	r24, r14
    30dc:	b6 01       	movw	r22, r12
    30de:	aa d6       	rcall	.+3412   	; 0x3e34 <__mulsf3>
    30e0:	9b 01       	movw	r18, r22
    30e2:	ac 01       	movw	r20, r24
    30e4:	69 8d       	ldd	r22, Y+25	; 0x19
    30e6:	7a 8d       	ldd	r23, Y+26	; 0x1a
    30e8:	8b 8d       	ldd	r24, Y+27	; 0x1b
    30ea:	9c 8d       	ldd	r25, Y+28	; 0x1c
    30ec:	22 d4       	rcall	.+2116   	; 0x3932 <__addsf3>
    30ee:	69 8f       	std	Y+25, r22	; 0x19
    30f0:	7a 8f       	std	Y+26, r23	; 0x1a
    30f2:	8b 8f       	std	Y+27, r24	; 0x1b
    30f4:	9c 8f       	std	Y+28, r25	; 0x1c
    30f6:	8f e1       	ldi	r24, 0x1F	; 31
	#else
		//round up by default
		__ticks_dc = (uint32_t)(ceil(fabs(__tmp)));
	#endif

	__builtin_avr_delay_cycles(__ticks_dc);
    30f8:	9e e4       	ldi	r25, 0x4E	; 78
    30fa:	01 97       	sbiw	r24, 0x01	; 1
    30fc:	f1 f7       	brne	.-4      	; 0x30fa <_ZN7MPU605013calibrateGyroEh+0x146>
    30fe:	00 c0       	rjmp	.+0      	; 0x3100 <_ZN7MPU605013calibrateGyroEh+0x14c>
    3100:	00 00       	nop
    3102:	1f 5f       	subi	r17, 0xFF	; 255
	float sigmaX = 0;
	float sigmaY = 0;
	float sigmaZ = 0;

	// Read n-samples
	for (uint8_t i = 0; i < samples; ++i)
    3104:	01 13       	cpse	r16, r17
    3106:	93 cf       	rjmp	.-218    	; 0x302e <_ZN7MPU605013calibrateGyroEh+0x7a>
    3108:	18 c0       	rjmp	.+48     	; 0x313a <_ZN7MPU605013calibrateGyroEh+0x186>
    310a:	19 8e       	std	Y+25, r1	; 0x19
	float sumX = 0;
	float sumY = 0;
	float sumZ = 0;
	float sigmaX = 0;
	float sigmaY = 0;
	float sigmaZ = 0;
    310c:	1a 8e       	std	Y+26, r1	; 0x1a
    310e:	1b 8e       	std	Y+27, r1	; 0x1b
    3110:	1c 8e       	std	Y+28, r1	; 0x1c
    3112:	1d 8a       	std	Y+21, r1	; 0x15
	// Reset values
	float sumX = 0;
	float sumY = 0;
	float sumZ = 0;
	float sigmaX = 0;
	float sigmaY = 0;
    3114:	1e 8a       	std	Y+22, r1	; 0x16
    3116:	1f 8a       	std	Y+23, r1	; 0x17
    3118:	18 8e       	std	Y+24, r1	; 0x18
    311a:	1d 86       	std	Y+13, r1	; 0x0d

	// Reset values
	float sumX = 0;
	float sumY = 0;
	float sumZ = 0;
	float sigmaX = 0;
    311c:	1e 86       	std	Y+14, r1	; 0x0e
    311e:	1f 86       	std	Y+15, r1	; 0x0f
    3120:	18 8a       	std	Y+16, r1	; 0x10
    3122:	19 a2       	std	Y+33, r1	; 0x21
	useCalibrate = true;

	// Reset values
	float sumX = 0;
	float sumY = 0;
	float sumZ = 0;
    3124:	1a a2       	std	Y+34, r1	; 0x22
    3126:	1b a2       	std	Y+35, r1	; 0x23
    3128:	1c a2       	std	Y+36, r1	; 0x24
    312a:	1d 8e       	std	Y+29, r1	; 0x1d
	// Set calibrate
	useCalibrate = true;

	// Reset values
	float sumX = 0;
	float sumY = 0;
    312c:	1e 8e       	std	Y+30, r1	; 0x1e
    312e:	1f 8e       	std	Y+31, r1	; 0x1f
    3130:	18 a2       	std	Y+32, r1	; 0x20
{
	// Set calibrate
	useCalibrate = true;

	// Reset values
	float sumX = 0;
    3132:	19 8a       	std	Y+17, r1	; 0x11
    3134:	1a 8a       	std	Y+18, r1	; 0x12
    3136:	1b 8a       	std	Y+19, r1	; 0x13
    3138:	1c 8a       	std	Y+20, r1	; 0x14

		_delay_ms(5);
	}

	// Calculate delta vectors
	dg.XAxis = sumX / samples;
    313a:	60 2f       	mov	r22, r16
    313c:	70 e0       	ldi	r23, 0x00	; 0
    313e:	80 e0       	ldi	r24, 0x00	; 0
    3140:	90 e0       	ldi	r25, 0x00	; 0
    3142:	5f d5       	rcall	.+2750   	; 0x3c02 <__floatsisf>
    3144:	4b 01       	movw	r8, r22
    3146:	5c 01       	movw	r10, r24
    3148:	9b 01       	movw	r18, r22
    314a:	ac 01       	movw	r20, r24
    314c:	69 89       	ldd	r22, Y+17	; 0x11
    314e:	7a 89       	ldd	r23, Y+18	; 0x12
    3150:	8b 89       	ldd	r24, Y+19	; 0x13
    3152:	9c 89       	ldd	r25, Y+20	; 0x14
    3154:	bb d4       	rcall	.+2422   	; 0x3acc <__divsf3>
    3156:	6b 01       	movw	r12, r22
    3158:	7c 01       	movw	r14, r24
    315a:	f1 01       	movw	r30, r2
    315c:	64 af       	std	Z+60, r22	; 0x3c
    315e:	75 af       	std	Z+61, r23	; 0x3d
    3160:	86 af       	std	Z+62, r24	; 0x3e
    3162:	97 af       	std	Z+63, r25	; 0x3f
	dg.YAxis = sumY / samples;
    3164:	a5 01       	movw	r20, r10
    3166:	94 01       	movw	r18, r8
    3168:	6d 8d       	ldd	r22, Y+29	; 0x1d
    316a:	7e 8d       	ldd	r23, Y+30	; 0x1e
    316c:	8f 8d       	ldd	r24, Y+31	; 0x1f
    316e:	98 a1       	ldd	r25, Y+32	; 0x20
    3170:	ad d4       	rcall	.+2394   	; 0x3acc <__divsf3>
    3172:	2b 01       	movw	r4, r22
    3174:	3c 01       	movw	r6, r24
    3176:	f1 01       	movw	r30, r2
    3178:	e0 5c       	subi	r30, 0xC0	; 192
    317a:	ff 4f       	sbci	r31, 0xFF	; 255
    317c:	60 83       	st	Z, r22
    317e:	71 83       	std	Z+1, r23	; 0x01
    3180:	82 83       	std	Z+2, r24	; 0x02
    3182:	93 83       	std	Z+3, r25	; 0x03
	dg.ZAxis = sumZ / samples;
    3184:	a5 01       	movw	r20, r10
    3186:	94 01       	movw	r18, r8
    3188:	69 a1       	ldd	r22, Y+33	; 0x21
    318a:	7a a1       	ldd	r23, Y+34	; 0x22
    318c:	8b a1       	ldd	r24, Y+35	; 0x23
    318e:	9c a1       	ldd	r25, Y+36	; 0x24
    3190:	9d d4       	rcall	.+2362   	; 0x3acc <__divsf3>
    3192:	4b 01       	movw	r8, r22
    3194:	5c 01       	movw	r10, r24
    3196:	f1 01       	movw	r30, r2
    3198:	ec 5b       	subi	r30, 0xBC	; 188
    319a:	ff 4f       	sbci	r31, 0xFF	; 255
    319c:	60 83       	st	Z, r22
    319e:	71 83       	std	Z+1, r23	; 0x01
    31a0:	82 83       	std	Z+2, r24	; 0x02
    31a2:	93 83       	std	Z+3, r25	; 0x03

	// Calculate threshold vectors
	th.XAxis = sqrt((sigmaX / 50) - (dg.XAxis * dg.XAxis));
    31a4:	20 e0       	ldi	r18, 0x00	; 0
    31a6:	30 e0       	ldi	r19, 0x00	; 0
    31a8:	48 e4       	ldi	r20, 0x48	; 72
    31aa:	52 e4       	ldi	r21, 0x42	; 66
    31ac:	6d 85       	ldd	r22, Y+13	; 0x0d
    31ae:	7e 85       	ldd	r23, Y+14	; 0x0e
    31b0:	8f 85       	ldd	r24, Y+15	; 0x0f
    31b2:	98 89       	ldd	r25, Y+16	; 0x10
    31b4:	8b d4       	rcall	.+2326   	; 0x3acc <__divsf3>
    31b6:	69 8b       	std	Y+17, r22	; 0x11
    31b8:	7a 8b       	std	Y+18, r23	; 0x12
    31ba:	8b 8b       	std	Y+19, r24	; 0x13
    31bc:	9c 8b       	std	Y+20, r25	; 0x14
    31be:	20 e0       	ldi	r18, 0x00	; 0
    31c0:	30 e0       	ldi	r19, 0x00	; 0
    31c2:	48 e4       	ldi	r20, 0x48	; 72
    31c4:	52 e4       	ldi	r21, 0x42	; 66
    31c6:	6d 85       	ldd	r22, Y+13	; 0x0d
    31c8:	7e 85       	ldd	r23, Y+14	; 0x0e
    31ca:	8f 85       	ldd	r24, Y+15	; 0x0f
    31cc:	98 89       	ldd	r25, Y+16	; 0x10
    31ce:	7e d4       	rcall	.+2300   	; 0x3acc <__divsf3>
    31d0:	6d 87       	std	Y+13, r22	; 0x0d
    31d2:	7e 87       	std	Y+14, r23	; 0x0e
    31d4:	8f 87       	std	Y+15, r24	; 0x0f
    31d6:	98 8b       	std	Y+16, r25	; 0x10
    31d8:	a7 01       	movw	r20, r14
    31da:	96 01       	movw	r18, r12
    31dc:	c7 01       	movw	r24, r14
    31de:	b6 01       	movw	r22, r12
    31e0:	29 d6       	rcall	.+3154   	; 0x3e34 <__mulsf3>
    31e2:	9b 01       	movw	r18, r22
    31e4:	ac 01       	movw	r20, r24
    31e6:	6d 85       	ldd	r22, Y+13	; 0x0d
    31e8:	7e 85       	ldd	r23, Y+14	; 0x0e
    31ea:	8f 85       	ldd	r24, Y+15	; 0x0f
    31ec:	98 89       	ldd	r25, Y+16	; 0x10
    31ee:	a0 d3       	rcall	.+1856   	; 0x3930 <__subsf3>
    31f0:	8e d6       	rcall	.+3356   	; 0x3f0e <sqrt>
    31f2:	f1 01       	movw	r30, r2
    31f4:	ec 5a       	subi	r30, 0xAC	; 172
    31f6:	ff 4f       	sbci	r31, 0xFF	; 255
    31f8:	60 83       	st	Z, r22
    31fa:	71 83       	std	Z+1, r23	; 0x01
    31fc:	82 83       	std	Z+2, r24	; 0x02
    31fe:	93 83       	std	Z+3, r25	; 0x03
	th.YAxis = sqrt((sigmaY / 50) - (dg.YAxis * dg.YAxis));
    3200:	20 e0       	ldi	r18, 0x00	; 0
    3202:	30 e0       	ldi	r19, 0x00	; 0
    3204:	48 e4       	ldi	r20, 0x48	; 72
    3206:	52 e4       	ldi	r21, 0x42	; 66
    3208:	6d 89       	ldd	r22, Y+21	; 0x15
    320a:	7e 89       	ldd	r23, Y+22	; 0x16
    320c:	8f 89       	ldd	r24, Y+23	; 0x17
    320e:	98 8d       	ldd	r25, Y+24	; 0x18
    3210:	5d d4       	rcall	.+2234   	; 0x3acc <__divsf3>
    3212:	6b 01       	movw	r12, r22
    3214:	7c 01       	movw	r14, r24
    3216:	a3 01       	movw	r20, r6
    3218:	92 01       	movw	r18, r4
    321a:	c3 01       	movw	r24, r6
    321c:	b2 01       	movw	r22, r4
    321e:	0a d6       	rcall	.+3092   	; 0x3e34 <__mulsf3>
    3220:	9b 01       	movw	r18, r22
    3222:	ac 01       	movw	r20, r24
    3224:	c7 01       	movw	r24, r14
    3226:	b6 01       	movw	r22, r12
    3228:	83 d3       	rcall	.+1798   	; 0x3930 <__subsf3>
    322a:	71 d6       	rcall	.+3298   	; 0x3f0e <sqrt>
    322c:	f1 01       	movw	r30, r2
    322e:	e8 5a       	subi	r30, 0xA8	; 168
    3230:	ff 4f       	sbci	r31, 0xFF	; 255
    3232:	60 83       	st	Z, r22
    3234:	71 83       	std	Z+1, r23	; 0x01
    3236:	82 83       	std	Z+2, r24	; 0x02
    3238:	93 83       	std	Z+3, r25	; 0x03
	th.ZAxis = sqrt((sigmaZ / 50) - (dg.ZAxis * dg.ZAxis));
    323a:	20 e0       	ldi	r18, 0x00	; 0
    323c:	30 e0       	ldi	r19, 0x00	; 0
    323e:	48 e4       	ldi	r20, 0x48	; 72
    3240:	52 e4       	ldi	r21, 0x42	; 66
    3242:	69 8d       	ldd	r22, Y+25	; 0x19
    3244:	7a 8d       	ldd	r23, Y+26	; 0x1a
    3246:	8b 8d       	ldd	r24, Y+27	; 0x1b
    3248:	9c 8d       	ldd	r25, Y+28	; 0x1c
    324a:	40 d4       	rcall	.+2176   	; 0x3acc <__divsf3>
    324c:	6b 01       	movw	r12, r22
    324e:	7c 01       	movw	r14, r24
    3250:	a5 01       	movw	r20, r10
    3252:	94 01       	movw	r18, r8
    3254:	c5 01       	movw	r24, r10
    3256:	b4 01       	movw	r22, r8
    3258:	ed d5       	rcall	.+3034   	; 0x3e34 <__mulsf3>
    325a:	9b 01       	movw	r18, r22
    325c:	ac 01       	movw	r20, r24
    325e:	c7 01       	movw	r24, r14
    3260:	b6 01       	movw	r22, r12
    3262:	66 d3       	rcall	.+1740   	; 0x3930 <__subsf3>
    3264:	54 d6       	rcall	.+3240   	; 0x3f0e <sqrt>
    3266:	f1 01       	movw	r30, r2
    3268:	e4 5a       	subi	r30, 0xA4	; 164
    326a:	ff 4f       	sbci	r31, 0xFF	; 255
    326c:	60 83       	st	Z, r22
    326e:	71 83       	std	Z+1, r23	; 0x01
    3270:	82 83       	std	Z+2, r24	; 0x02
    3272:	93 83       	std	Z+3, r25	; 0x03
    3274:	78 96       	adiw	r30, 0x18	; 24

	// If already set threshold, recalculate threshold vectors
	if (actualThreshold > 0)
    3276:	c0 80       	ld	r12, Z
    3278:	d1 80       	ldd	r13, Z+1	; 0x01
    327a:	e2 80       	ldd	r14, Z+2	; 0x02
    327c:	f3 80       	ldd	r15, Z+3	; 0x03
    327e:	20 e0       	ldi	r18, 0x00	; 0
    3280:	30 e0       	ldi	r19, 0x00	; 0
    3282:	a9 01       	movw	r20, r18
    3284:	c7 01       	movw	r24, r14
    3286:	b6 01       	movw	r22, r12
    3288:	ca d5       	rcall	.+2964   	; 0x3e1e <__gesf2>
    328a:	18 16       	cp	r1, r24
    328c:	2c f4       	brge	.+10     	; 0x3298 <_ZN7MPU605013calibrateGyroEh+0x2e4>
    328e:	c7 01       	movw	r24, r14
    3290:	b6 01       	movw	r22, r12
	{
		setThreshold(actualThreshold);
    3292:	89 d4       	rcall	.+2322   	; 0x3ba6 <__fixunssfsi>
    3294:	c1 01       	movw	r24, r2
    3296:	28 de       	rcall	.-944    	; 0x2ee8 <_ZN7MPU605012setThresholdEh>
    3298:	a4 96       	adiw	r28, 0x24	; 36
    329a:	0f b6       	in	r0, 0x3f	; 63
    329c:	f8 94       	cli
    329e:	de bf       	out	0x3e, r29	; 62
	}
}
    32a0:	0f be       	out	0x3f, r0	; 63
    32a2:	cd bf       	out	0x3d, r28	; 61
    32a4:	df 91       	pop	r29
    32a6:	cf 91       	pop	r28
    32a8:	1f 91       	pop	r17
    32aa:	0f 91       	pop	r16
    32ac:	ff 90       	pop	r15
    32ae:	ef 90       	pop	r14
    32b0:	df 90       	pop	r13
    32b2:	cf 90       	pop	r12
    32b4:	bf 90       	pop	r11
    32b6:	af 90       	pop	r10
    32b8:	9f 90       	pop	r9
    32ba:	8f 90       	pop	r8
    32bc:	7f 90       	pop	r7
    32be:	6f 90       	pop	r6
    32c0:	5f 90       	pop	r5
    32c2:	4f 90       	pop	r4
    32c4:	3f 90       	pop	r3
    32c6:	2f 90       	pop	r2
    32c8:	08 95       	ret

000032ca <_ZN7MPU60508rateGyroEv>:
    32ca:	ef 92       	push	r14
    32cc:	ff 92       	push	r15
    32ce:	0f 93       	push	r16
    32d0:	1f 93       	push	r17

	// Remember old threshold value
	actualThreshold = multiple;
}

void MPU6050::rateGyro(){
    32d2:	cf 93       	push	r28
    32d4:	df 93       	push	r29
    32d6:	cd b7       	in	r28, 0x3d	; 61
    32d8:	de b7       	in	r29, 0x3e	; 62
    32da:	2c 97       	sbiw	r28, 0x0c	; 12
    32dc:	0f b6       	in	r0, 0x3f	; 63
    32de:	f8 94       	cli
    32e0:	de bf       	out	0x3e, r29	; 62
    32e2:	0f be       	out	0x3f, r0	; 63
    32e4:	cd bf       	out	0x3d, r28	; 61
    32e6:	8c 01       	movw	r16, r24
	readRawGyro();
    32e8:	bc 01       	movw	r22, r24
    32ea:	ce 01       	movw	r24, r28
    32ec:	01 96       	adiw	r24, 0x01	; 1
    32ee:	af dd       	rcall	.-1186   	; 0x2e4e <_ZN7MPU605011readRawGyroEv>
	gyroRateX = (rg.XAxis)/131;
    32f0:	78 01       	movw	r14, r16
    32f2:	80 e6       	ldi	r24, 0x60	; 96
    32f4:	e8 0e       	add	r14, r24
    32f6:	f1 1c       	adc	r15, r1
    32f8:	20 e0       	ldi	r18, 0x00	; 0
    32fa:	30 e0       	ldi	r19, 0x00	; 0
    32fc:	43 e0       	ldi	r20, 0x03	; 3
    32fe:	53 e4       	ldi	r21, 0x43	; 67
    3300:	f8 01       	movw	r30, r16
    3302:	64 85       	ldd	r22, Z+12	; 0x0c
    3304:	75 85       	ldd	r23, Z+13	; 0x0d
    3306:	86 85       	ldd	r24, Z+14	; 0x0e
    3308:	97 85       	ldd	r25, Z+15	; 0x0f
    330a:	e0 d3       	rcall	.+1984   	; 0x3acc <__divsf3>
    330c:	f7 01       	movw	r30, r14
    330e:	60 83       	st	Z, r22
    3310:	71 83       	std	Z+1, r23	; 0x01
    3312:	82 83       	std	Z+2, r24	; 0x02
    3314:	93 83       	std	Z+3, r25	; 0x03
	gyroRateY = (rg.YAxis)/131;
    3316:	78 01       	movw	r14, r16
    3318:	f4 e6       	ldi	r31, 0x64	; 100
    331a:	ef 0e       	add	r14, r31
    331c:	f1 1c       	adc	r15, r1
    331e:	20 e0       	ldi	r18, 0x00	; 0
    3320:	30 e0       	ldi	r19, 0x00	; 0
    3322:	43 e0       	ldi	r20, 0x03	; 3
    3324:	53 e4       	ldi	r21, 0x43	; 67
    3326:	f8 01       	movw	r30, r16
    3328:	60 89       	ldd	r22, Z+16	; 0x10
    332a:	71 89       	ldd	r23, Z+17	; 0x11
    332c:	82 89       	ldd	r24, Z+18	; 0x12
    332e:	93 89       	ldd	r25, Z+19	; 0x13
    3330:	cd d3       	rcall	.+1946   	; 0x3acc <__divsf3>
    3332:	f7 01       	movw	r30, r14
    3334:	60 83       	st	Z, r22
    3336:	71 83       	std	Z+1, r23	; 0x01
    3338:	82 83       	std	Z+2, r24	; 0x02
    333a:	93 83       	std	Z+3, r25	; 0x03
	gyroRateZ = (rg.ZAxis)/131;
    333c:	78 01       	movw	r14, r16
    333e:	f8 e6       	ldi	r31, 0x68	; 104
    3340:	ef 0e       	add	r14, r31
    3342:	f1 1c       	adc	r15, r1
    3344:	20 e0       	ldi	r18, 0x00	; 0
    3346:	30 e0       	ldi	r19, 0x00	; 0
    3348:	43 e0       	ldi	r20, 0x03	; 3
    334a:	53 e4       	ldi	r21, 0x43	; 67
    334c:	f8 01       	movw	r30, r16
    334e:	64 89       	ldd	r22, Z+20	; 0x14
    3350:	75 89       	ldd	r23, Z+21	; 0x15
    3352:	86 89       	ldd	r24, Z+22	; 0x16
    3354:	97 89       	ldd	r25, Z+23	; 0x17
    3356:	ba d3       	rcall	.+1908   	; 0x3acc <__divsf3>
    3358:	f7 01       	movw	r30, r14
    335a:	60 83       	st	Z, r22
    335c:	71 83       	std	Z+1, r23	; 0x01
    335e:	82 83       	std	Z+2, r24	; 0x02
    3360:	93 83       	std	Z+3, r25	; 0x03
}
    3362:	2c 96       	adiw	r28, 0x0c	; 12
    3364:	0f b6       	in	r0, 0x3f	; 63
    3366:	f8 94       	cli
    3368:	de bf       	out	0x3e, r29	; 62
    336a:	0f be       	out	0x3f, r0	; 63
    336c:	cd bf       	out	0x3d, r28	; 61
    336e:	df 91       	pop	r29
    3370:	cf 91       	pop	r28
    3372:	1f 91       	pop	r17
    3374:	0f 91       	pop	r16
    3376:	ff 90       	pop	r15
    3378:	ef 90       	pop	r14
    337a:	08 95       	ret

0000337c <_ZN7MPU605012getGyroRateXEv>:

float MPU6050::getGyroRateX(){
	return gyroRateX;
    337c:	80 5a       	subi	r24, 0xA0	; 160
    337e:	9f 4f       	sbci	r25, 0xFF	; 255
    3380:	fc 01       	movw	r30, r24
    3382:	60 81       	ld	r22, Z
    3384:	71 81       	ldd	r23, Z+1	; 0x01
    3386:	82 81       	ldd	r24, Z+2	; 0x02
    3388:	93 81       	ldd	r25, Z+3	; 0x03
}
    338a:	08 95       	ret

0000338c <_ZN7MPU605012getGyroRateYEv>:
float MPU6050::getGyroRateY(){
	return gyroRateY;
    338c:	8c 59       	subi	r24, 0x9C	; 156
    338e:	9f 4f       	sbci	r25, 0xFF	; 255
    3390:	fc 01       	movw	r30, r24
    3392:	60 81       	ld	r22, Z
    3394:	71 81       	ldd	r23, Z+1	; 0x01
    3396:	82 81       	ldd	r24, Z+2	; 0x02
    3398:	93 81       	ldd	r25, Z+3	; 0x03
}
    339a:	08 95       	ret

0000339c <_ZN7MPU605012getGyroRateZEv>:
float MPU6050::getGyroRateZ(){
	return gyroRateZ;
    339c:	88 59       	subi	r24, 0x98	; 152
    339e:	9f 4f       	sbci	r25, 0xFF	; 255
    33a0:	fc 01       	movw	r30, r24
    33a2:	60 81       	ld	r22, Z
    33a4:	71 81       	ldd	r23, Z+1	; 0x01
    33a6:	82 81       	ldd	r24, Z+2	; 0x02
    33a8:	93 81       	ldd	r25, Z+3	; 0x03
    33aa:	08 95       	ret

000033ac <_Z8i2c_initv>:
uint8_t i2c_write_array(uint8_t *data, uint8_t count){
	while(count--){
		if(i2c_write(*data++) != 0)		return count;
	}
	return 0;
}
    33ac:	10 92 b9 00 	sts	0x00B9, r1	; 0x8000b9 <__TEXT_REGION_LENGTH__+0x7000b9>
    33b0:	88 e4       	ldi	r24, 0x48	; 72
    33b2:	80 93 b8 00 	sts	0x00B8, r24	; 0x8000b8 <__TEXT_REGION_LENGTH__+0x7000b8>
    33b6:	08 95       	ret

000033b8 <_Z9i2c_starth>:
    33b8:	94 ea       	ldi	r25, 0xA4	; 164
    33ba:	90 93 bc 00 	sts	0x00BC, r25	; 0x8000bc <__TEXT_REGION_LENGTH__+0x7000bc>
    33be:	ec eb       	ldi	r30, 0xBC	; 188
    33c0:	f0 e0       	ldi	r31, 0x00	; 0
    33c2:	90 81       	ld	r25, Z
    33c4:	99 23       	and	r25, r25
    33c6:	ec f7       	brge	.-6      	; 0x33c2 <_Z9i2c_starth+0xa>
    33c8:	90 91 b9 00 	lds	r25, 0x00B9	; 0x8000b9 <__TEXT_REGION_LENGTH__+0x7000b9>
    33cc:	98 7f       	andi	r25, 0xF8	; 248
    33ce:	98 30       	cpi	r25, 0x08	; 8
    33d0:	11 f0       	breq	.+4      	; 0x33d6 <_Z9i2c_starth+0x1e>
    33d2:	90 31       	cpi	r25, 0x10	; 16
    33d4:	a1 f4       	brne	.+40     	; 0x33fe <_Z9i2c_starth+0x46>
    33d6:	80 93 bb 00 	sts	0x00BB, r24	; 0x8000bb <__TEXT_REGION_LENGTH__+0x7000bb>
    33da:	84 e8       	ldi	r24, 0x84	; 132
    33dc:	80 93 bc 00 	sts	0x00BC, r24	; 0x8000bc <__TEXT_REGION_LENGTH__+0x7000bc>
    33e0:	ec eb       	ldi	r30, 0xBC	; 188
    33e2:	f0 e0       	ldi	r31, 0x00	; 0
    33e4:	80 81       	ld	r24, Z
    33e6:	88 23       	and	r24, r24
    33e8:	ec f7       	brge	.-6      	; 0x33e4 <_Z9i2c_starth+0x2c>
    33ea:	90 91 b9 00 	lds	r25, 0x00B9	; 0x8000b9 <__TEXT_REGION_LENGTH__+0x7000b9>
    33ee:	98 7f       	andi	r25, 0xF8	; 248
    33f0:	98 31       	cpi	r25, 0x18	; 24
    33f2:	39 f0       	breq	.+14     	; 0x3402 <_Z9i2c_starth+0x4a>
    33f4:	81 e0       	ldi	r24, 0x01	; 1
    33f6:	90 34       	cpi	r25, 0x40	; 64
    33f8:	29 f4       	brne	.+10     	; 0x3404 <_Z9i2c_starth+0x4c>
    33fa:	80 e0       	ldi	r24, 0x00	; 0
    33fc:	08 95       	ret
    33fe:	81 e0       	ldi	r24, 0x01	; 1
    3400:	08 95       	ret
    3402:	80 e0       	ldi	r24, 0x00	; 0
    3404:	08 95       	ret

00003406 <_Z13i2c_rep_starth>:
    3406:	d8 cf       	rjmp	.-80     	; 0x33b8 <_Z9i2c_starth>
    3408:	08 95       	ret

0000340a <_Z8i2c_stopv>:
    340a:	84 e9       	ldi	r24, 0x94	; 148
    340c:	80 93 bc 00 	sts	0x00BC, r24	; 0x8000bc <__TEXT_REGION_LENGTH__+0x7000bc>
    3410:	ec eb       	ldi	r30, 0xBC	; 188
    3412:	f0 e0       	ldi	r31, 0x00	; 0
    3414:	80 81       	ld	r24, Z
    3416:	84 fd       	sbrc	r24, 4
    3418:	fd cf       	rjmp	.-6      	; 0x3414 <_Z8i2c_stopv+0xa>
    341a:	08 95       	ret

0000341c <_Z14i2c_start_waith>:
    341c:	bf 92       	push	r11
    341e:	cf 92       	push	r12
    3420:	df 92       	push	r13
    3422:	ef 92       	push	r14
    3424:	ff 92       	push	r15
    3426:	0f 93       	push	r16
    3428:	1f 93       	push	r17
    342a:	cf 93       	push	r28
    342c:	df 93       	push	r29
    342e:	b8 2e       	mov	r11, r24
    3430:	cc eb       	ldi	r28, 0xBC	; 188
    3432:	d0 e0       	ldi	r29, 0x00	; 0
    3434:	09 eb       	ldi	r16, 0xB9	; 185
    3436:	10 e0       	ldi	r17, 0x00	; 0
    3438:	0f 2e       	mov	r0, r31
    343a:	f4 ea       	ldi	r31, 0xA4	; 164
    343c:	df 2e       	mov	r13, r31
    343e:	f0 2d       	mov	r31, r0
    3440:	0f 2e       	mov	r0, r31
    3442:	fb eb       	ldi	r31, 0xBB	; 187
    3444:	ef 2e       	mov	r14, r31
    3446:	f1 2c       	mov	r15, r1
    3448:	f0 2d       	mov	r31, r0
    344a:	0f 2e       	mov	r0, r31
    344c:	f4 e8       	ldi	r31, 0x84	; 132
    344e:	cf 2e       	mov	r12, r31
    3450:	f0 2d       	mov	r31, r0
    3452:	d8 82       	st	Y, r13
    3454:	88 81       	ld	r24, Y
    3456:	88 23       	and	r24, r24
    3458:	ec f7       	brge	.-6      	; 0x3454 <_Z14i2c_start_waith+0x38>
    345a:	f8 01       	movw	r30, r16
    345c:	80 81       	ld	r24, Z
    345e:	88 7f       	andi	r24, 0xF8	; 248
    3460:	88 30       	cpi	r24, 0x08	; 8
    3462:	b9 f7       	brne	.-18     	; 0x3452 <_Z14i2c_start_waith+0x36>
    3464:	f7 01       	movw	r30, r14
    3466:	b0 82       	st	Z, r11
    3468:	c8 82       	st	Y, r12
    346a:	88 81       	ld	r24, Y
    346c:	88 23       	and	r24, r24
    346e:	ec f7       	brge	.-6      	; 0x346a <_Z14i2c_start_waith+0x4e>
    3470:	f8 01       	movw	r30, r16
    3472:	80 81       	ld	r24, Z
    3474:	88 7f       	andi	r24, 0xF8	; 248
    3476:	88 31       	cpi	r24, 0x18	; 24
    3478:	11 f0       	breq	.+4      	; 0x347e <_Z14i2c_start_waith+0x62>
    347a:	c7 df       	rcall	.-114    	; 0x340a <_Z8i2c_stopv>
    347c:	ea cf       	rjmp	.-44     	; 0x3452 <_Z14i2c_start_waith+0x36>
    347e:	df 91       	pop	r29
    3480:	cf 91       	pop	r28
    3482:	1f 91       	pop	r17
    3484:	0f 91       	pop	r16
    3486:	ff 90       	pop	r15
    3488:	ef 90       	pop	r14
    348a:	df 90       	pop	r13
    348c:	cf 90       	pop	r12
    348e:	bf 90       	pop	r11
    3490:	08 95       	ret

00003492 <_Z9i2c_writeh>:
    3492:	80 93 bb 00 	sts	0x00BB, r24	; 0x8000bb <__TEXT_REGION_LENGTH__+0x7000bb>
    3496:	84 e8       	ldi	r24, 0x84	; 132
    3498:	80 93 bc 00 	sts	0x00BC, r24	; 0x8000bc <__TEXT_REGION_LENGTH__+0x7000bc>
    349c:	ec eb       	ldi	r30, 0xBC	; 188
    349e:	f0 e0       	ldi	r31, 0x00	; 0
    34a0:	80 81       	ld	r24, Z
    34a2:	88 23       	and	r24, r24
    34a4:	ec f7       	brge	.-6      	; 0x34a0 <_Z9i2c_writeh+0xe>
    34a6:	90 91 b9 00 	lds	r25, 0x00B9	; 0x8000b9 <__TEXT_REGION_LENGTH__+0x7000b9>
    34aa:	98 7f       	andi	r25, 0xF8	; 248
    34ac:	81 e0       	ldi	r24, 0x01	; 1
    34ae:	98 32       	cpi	r25, 0x28	; 40
    34b0:	09 f4       	brne	.+2      	; 0x34b4 <_Z9i2c_writeh+0x22>
    34b2:	80 e0       	ldi	r24, 0x00	; 0
    34b4:	08 95       	ret

000034b6 <_Z11i2c_readAckv>:
 
 Return:  byte read from I2C device
*************************************************************************/
unsigned char i2c_readAck(void)
{
	TWCR = (1<<TWINT) | (1<<TWEN) | (1<<TWEA);
    34b6:	84 ec       	ldi	r24, 0xC4	; 196
    34b8:	80 93 bc 00 	sts	0x00BC, r24	; 0x8000bc <__TEXT_REGION_LENGTH__+0x7000bc>
	while(!(TWCR & (1<<TWINT)));    
    34bc:	ec eb       	ldi	r30, 0xBC	; 188
    34be:	f0 e0       	ldi	r31, 0x00	; 0
    34c0:	80 81       	ld	r24, Z
    34c2:	88 23       	and	r24, r24
    34c4:	ec f7       	brge	.-6      	; 0x34c0 <_Z11i2c_readAckv+0xa>

    return TWDR;
    34c6:	80 91 bb 00 	lds	r24, 0x00BB	; 0x8000bb <__TEXT_REGION_LENGTH__+0x7000bb>

}/* i2c_readAck */
    34ca:	08 95       	ret

000034cc <_Z11i2c_readNakv>:
 
 Return:  byte read from I2C device
*************************************************************************/
unsigned char i2c_readNak(void)
{
	TWCR = (1<<TWINT) | (1<<TWEN);
    34cc:	84 e8       	ldi	r24, 0x84	; 132
    34ce:	80 93 bc 00 	sts	0x00BC, r24	; 0x8000bc <__TEXT_REGION_LENGTH__+0x7000bc>
	while(!(TWCR & (1<<TWINT)));
    34d2:	ec eb       	ldi	r30, 0xBC	; 188
    34d4:	f0 e0       	ldi	r31, 0x00	; 0
    34d6:	80 81       	ld	r24, Z
    34d8:	88 23       	and	r24, r24
    34da:	ec f7       	brge	.-6      	; 0x34d6 <_Z11i2c_readNakv+0xa>
	
    return TWDR;
    34dc:	80 91 bb 00 	lds	r24, 0x00BB	; 0x8000bb <__TEXT_REGION_LENGTH__+0x7000bb>

    34e0:	08 95       	ret

000034e2 <__vector_25>:
 Input:    None
 Returns:  None
 **************************************************************************/
void uart2_flush(void)
{
	UART2_RxHead = UART2_RxTail;
    34e2:	1f 92       	push	r1
    34e4:	0f 92       	push	r0
    34e6:	0f b6       	in	r0, 0x3f	; 63
    34e8:	0f 92       	push	r0
    34ea:	11 24       	eor	r1, r1
    34ec:	0b b6       	in	r0, 0x3b	; 59
    34ee:	0f 92       	push	r0
    34f0:	2f 93       	push	r18
    34f2:	8f 93       	push	r24
    34f4:	9f 93       	push	r25
    34f6:	ef 93       	push	r30
    34f8:	ff 93       	push	r31
    34fa:	80 91 c0 00 	lds	r24, 0x00C0	; 0x8000c0 <__TEXT_REGION_LENGTH__+0x7000c0>
    34fe:	20 91 c6 00 	lds	r18, 0x00C6	; 0x8000c6 <__TEXT_REGION_LENGTH__+0x7000c6>
    3502:	88 71       	andi	r24, 0x18	; 24
    3504:	e0 91 19 05 	lds	r30, 0x0519	; 0x800519 <_ZL12UART0_RxHead>
    3508:	ef 5f       	subi	r30, 0xFF	; 255
    350a:	ef 71       	andi	r30, 0x1F	; 31
    350c:	90 91 18 05 	lds	r25, 0x0518	; 0x800518 <_ZL12UART0_RxTail>
    3510:	e9 17       	cp	r30, r25
    3512:	39 f0       	breq	.+14     	; 0x3522 <__vector_25+0x40>
    3514:	e0 93 19 05 	sts	0x0519, r30	; 0x800519 <_ZL12UART0_RxHead>
    3518:	f0 e0       	ldi	r31, 0x00	; 0
    351a:	e4 5e       	subi	r30, 0xE4	; 228
    351c:	fa 4f       	sbci	r31, 0xFA	; 250
    351e:	20 83       	st	Z, r18
    3520:	01 c0       	rjmp	.+2      	; 0x3524 <__vector_25+0x42>
    3522:	82 e0       	ldi	r24, 0x02	; 2
    3524:	80 93 17 05 	sts	0x0517, r24	; 0x800517 <_ZL17UART0_LastRxError>
    3528:	ff 91       	pop	r31
    352a:	ef 91       	pop	r30
    352c:	9f 91       	pop	r25
    352e:	8f 91       	pop	r24
    3530:	2f 91       	pop	r18
    3532:	0f 90       	pop	r0
    3534:	0b be       	out	0x3b, r0	; 59
    3536:	0f 90       	pop	r0
    3538:	0f be       	out	0x3f, r0	; 63
    353a:	0f 90       	pop	r0
    353c:	1f 90       	pop	r1
    353e:	18 95       	reti

00003540 <__vector_26>:
    3540:	1f 92       	push	r1
    3542:	0f 92       	push	r0
    3544:	0f b6       	in	r0, 0x3f	; 63
    3546:	0f 92       	push	r0
    3548:	11 24       	eor	r1, r1
    354a:	0b b6       	in	r0, 0x3b	; 59
    354c:	0f 92       	push	r0
    354e:	8f 93       	push	r24
    3550:	9f 93       	push	r25
    3552:	ef 93       	push	r30
    3554:	ff 93       	push	r31
    3556:	90 91 1b 05 	lds	r25, 0x051B	; 0x80051b <_ZL12UART0_TxHead>
    355a:	80 91 1a 05 	lds	r24, 0x051A	; 0x80051a <_ZL12UART0_TxTail>
    355e:	98 17       	cp	r25, r24
    3560:	69 f0       	breq	.+26     	; 0x357c <__vector_26+0x3c>
    3562:	e0 91 1a 05 	lds	r30, 0x051A	; 0x80051a <_ZL12UART0_TxTail>
    3566:	ef 5f       	subi	r30, 0xFF	; 255
    3568:	ef 71       	andi	r30, 0x1F	; 31
    356a:	e0 93 1a 05 	sts	0x051A, r30	; 0x80051a <_ZL12UART0_TxTail>
    356e:	f0 e0       	ldi	r31, 0x00	; 0
    3570:	e4 5c       	subi	r30, 0xC4	; 196
    3572:	fa 4f       	sbci	r31, 0xFA	; 250
    3574:	80 81       	ld	r24, Z
    3576:	80 93 c6 00 	sts	0x00C6, r24	; 0x8000c6 <__TEXT_REGION_LENGTH__+0x7000c6>
    357a:	05 c0       	rjmp	.+10     	; 0x3586 <__vector_26+0x46>
    357c:	e1 ec       	ldi	r30, 0xC1	; 193
    357e:	f0 e0       	ldi	r31, 0x00	; 0
    3580:	80 81       	ld	r24, Z
    3582:	8f 7d       	andi	r24, 0xDF	; 223
    3584:	80 83       	st	Z, r24
    3586:	ff 91       	pop	r31
    3588:	ef 91       	pop	r30
    358a:	9f 91       	pop	r25
    358c:	8f 91       	pop	r24
    358e:	0f 90       	pop	r0
    3590:	0b be       	out	0x3b, r0	; 59
    3592:	0f 90       	pop	r0
    3594:	0f be       	out	0x3f, r0	; 63
    3596:	0f 90       	pop	r0
    3598:	1f 90       	pop	r1
    359a:	18 95       	reti

0000359c <_Z10uart0_initj>:
    359c:	10 92 1b 05 	sts	0x051B, r1	; 0x80051b <_ZL12UART0_TxHead>
    35a0:	10 92 1a 05 	sts	0x051A, r1	; 0x80051a <_ZL12UART0_TxTail>
    35a4:	10 92 19 05 	sts	0x0519, r1	; 0x800519 <_ZL12UART0_RxHead>
    35a8:	10 92 18 05 	sts	0x0518, r1	; 0x800518 <_ZL12UART0_RxTail>
    35ac:	99 23       	and	r25, r25
    35ae:	24 f4       	brge	.+8      	; 0x35b8 <_Z10uart0_initj+0x1c>
    35b0:	22 e0       	ldi	r18, 0x02	; 2
    35b2:	20 93 c0 00 	sts	0x00C0, r18	; 0x8000c0 <__TEXT_REGION_LENGTH__+0x7000c0>
    35b6:	9f 77       	andi	r25, 0x7F	; 127
    35b8:	90 93 c5 00 	sts	0x00C5, r25	; 0x8000c5 <__TEXT_REGION_LENGTH__+0x7000c5>
    35bc:	80 93 c4 00 	sts	0x00C4, r24	; 0x8000c4 <__TEXT_REGION_LENGTH__+0x7000c4>
    35c0:	88 e9       	ldi	r24, 0x98	; 152
    35c2:	80 93 c1 00 	sts	0x00C1, r24	; 0x8000c1 <__TEXT_REGION_LENGTH__+0x7000c1>
    35c6:	86 e0       	ldi	r24, 0x06	; 6
    35c8:	80 93 c2 00 	sts	0x00C2, r24	; 0x8000c2 <__TEXT_REGION_LENGTH__+0x7000c2>
    35cc:	08 95       	ret

000035ce <_Z10uart0_putch>:
    35ce:	20 91 1b 05 	lds	r18, 0x051B	; 0x80051b <_ZL12UART0_TxHead>
    35d2:	2f 5f       	subi	r18, 0xFF	; 255
    35d4:	2f 71       	andi	r18, 0x1F	; 31
    35d6:	90 91 1a 05 	lds	r25, 0x051A	; 0x80051a <_ZL12UART0_TxTail>
    35da:	29 17       	cp	r18, r25
    35dc:	e1 f3       	breq	.-8      	; 0x35d6 <_Z10uart0_putch+0x8>
    35de:	e2 2f       	mov	r30, r18
    35e0:	f0 e0       	ldi	r31, 0x00	; 0
    35e2:	e4 5c       	subi	r30, 0xC4	; 196
    35e4:	fa 4f       	sbci	r31, 0xFA	; 250
    35e6:	80 83       	st	Z, r24
    35e8:	20 93 1b 05 	sts	0x051B, r18	; 0x80051b <_ZL12UART0_TxHead>
    35ec:	e1 ec       	ldi	r30, 0xC1	; 193
    35ee:	f0 e0       	ldi	r31, 0x00	; 0
    35f0:	80 81       	ld	r24, Z
    35f2:	80 62       	ori	r24, 0x20	; 32
    35f4:	80 83       	st	Z, r24
    35f6:	08 95       	ret

000035f8 <_Z10uart0_putsPKc>:
    35f8:	cf 93       	push	r28
    35fa:	df 93       	push	r29
    35fc:	ec 01       	movw	r28, r24
    35fe:	88 81       	ld	r24, Y
    3600:	88 23       	and	r24, r24
    3602:	29 f0       	breq	.+10     	; 0x360e <_Z10uart0_putsPKc+0x16>
    3604:	21 96       	adiw	r28, 0x01	; 1
    3606:	e3 df       	rcall	.-58     	; 0x35ce <_Z10uart0_putch>
    3608:	89 91       	ld	r24, Y+
    360a:	81 11       	cpse	r24, r1
    360c:	fc cf       	rjmp	.-8      	; 0x3606 <_Z10uart0_putsPKc+0xe>
    360e:	df 91       	pop	r29
    3610:	cf 91       	pop	r28
    3612:	08 95       	ret

00003614 <__vector_36>:
    3614:	1f 92       	push	r1
    3616:	0f 92       	push	r0
    3618:	0f b6       	in	r0, 0x3f	; 63
    361a:	0f 92       	push	r0
    361c:	11 24       	eor	r1, r1
    361e:	0b b6       	in	r0, 0x3b	; 59
    3620:	0f 92       	push	r0
    3622:	2f 93       	push	r18
    3624:	8f 93       	push	r24
    3626:	9f 93       	push	r25
    3628:	ef 93       	push	r30
    362a:	ff 93       	push	r31
    362c:	80 91 c8 00 	lds	r24, 0x00C8	; 0x8000c8 <__TEXT_REGION_LENGTH__+0x7000c8>
    3630:	20 91 ce 00 	lds	r18, 0x00CE	; 0x8000ce <__TEXT_REGION_LENGTH__+0x7000ce>
    3634:	88 71       	andi	r24, 0x18	; 24
    3636:	e0 91 d4 04 	lds	r30, 0x04D4	; 0x8004d4 <_ZL12UART1_RxHead>
    363a:	ef 5f       	subi	r30, 0xFF	; 255
    363c:	ef 71       	andi	r30, 0x1F	; 31
    363e:	90 91 d3 04 	lds	r25, 0x04D3	; 0x8004d3 <_ZL12UART1_RxTail>
    3642:	e9 17       	cp	r30, r25
    3644:	39 f0       	breq	.+14     	; 0x3654 <__vector_36+0x40>
    3646:	e0 93 d4 04 	sts	0x04D4, r30	; 0x8004d4 <_ZL12UART1_RxHead>
    364a:	f0 e0       	ldi	r31, 0x00	; 0
    364c:	e9 52       	subi	r30, 0x29	; 41
    364e:	fb 4f       	sbci	r31, 0xFB	; 251
    3650:	20 83       	st	Z, r18
    3652:	01 c0       	rjmp	.+2      	; 0x3656 <__vector_36+0x42>
    3654:	82 e0       	ldi	r24, 0x02	; 2
    3656:	80 93 d2 04 	sts	0x04D2, r24	; 0x8004d2 <_ZL17UART1_LastRxError>
    365a:	ff 91       	pop	r31
    365c:	ef 91       	pop	r30
    365e:	9f 91       	pop	r25
    3660:	8f 91       	pop	r24
    3662:	2f 91       	pop	r18
    3664:	0f 90       	pop	r0
    3666:	0b be       	out	0x3b, r0	; 59
    3668:	0f 90       	pop	r0
    366a:	0f be       	out	0x3f, r0	; 63
    366c:	0f 90       	pop	r0
    366e:	1f 90       	pop	r1
    3670:	18 95       	reti

00003672 <__vector_37>:
    3672:	1f 92       	push	r1
    3674:	0f 92       	push	r0
    3676:	0f b6       	in	r0, 0x3f	; 63
    3678:	0f 92       	push	r0
    367a:	11 24       	eor	r1, r1
    367c:	0b b6       	in	r0, 0x3b	; 59
    367e:	0f 92       	push	r0
    3680:	8f 93       	push	r24
    3682:	9f 93       	push	r25
    3684:	ef 93       	push	r30
    3686:	ff 93       	push	r31
    3688:	90 91 d6 04 	lds	r25, 0x04D6	; 0x8004d6 <_ZL12UART1_TxHead>
    368c:	80 91 d5 04 	lds	r24, 0x04D5	; 0x8004d5 <_ZL12UART1_TxTail>
    3690:	98 17       	cp	r25, r24
    3692:	69 f0       	breq	.+26     	; 0x36ae <__vector_37+0x3c>
    3694:	e0 91 d5 04 	lds	r30, 0x04D5	; 0x8004d5 <_ZL12UART1_TxTail>
    3698:	ef 5f       	subi	r30, 0xFF	; 255
    369a:	ef 71       	andi	r30, 0x1F	; 31
    369c:	e0 93 d5 04 	sts	0x04D5, r30	; 0x8004d5 <_ZL12UART1_TxTail>
    36a0:	f0 e0       	ldi	r31, 0x00	; 0
    36a2:	e9 50       	subi	r30, 0x09	; 9
    36a4:	fb 4f       	sbci	r31, 0xFB	; 251
    36a6:	80 81       	ld	r24, Z
    36a8:	80 93 ce 00 	sts	0x00CE, r24	; 0x8000ce <__TEXT_REGION_LENGTH__+0x7000ce>
    36ac:	05 c0       	rjmp	.+10     	; 0x36b8 <__vector_37+0x46>
    36ae:	e9 ec       	ldi	r30, 0xC9	; 201
    36b0:	f0 e0       	ldi	r31, 0x00	; 0
    36b2:	80 81       	ld	r24, Z
    36b4:	8f 7d       	andi	r24, 0xDF	; 223
    36b6:	80 83       	st	Z, r24
    36b8:	ff 91       	pop	r31
    36ba:	ef 91       	pop	r30
    36bc:	9f 91       	pop	r25
    36be:	8f 91       	pop	r24
    36c0:	0f 90       	pop	r0
    36c2:	0b be       	out	0x3b, r0	; 59
    36c4:	0f 90       	pop	r0
    36c6:	0f be       	out	0x3f, r0	; 63
    36c8:	0f 90       	pop	r0
    36ca:	1f 90       	pop	r1
    36cc:	18 95       	reti

000036ce <__vector_51>:
    36ce:	1f 92       	push	r1
    36d0:	0f 92       	push	r0
    36d2:	0f b6       	in	r0, 0x3f	; 63
    36d4:	0f 92       	push	r0
    36d6:	11 24       	eor	r1, r1
    36d8:	0b b6       	in	r0, 0x3b	; 59
    36da:	0f 92       	push	r0
    36dc:	2f 93       	push	r18
    36de:	8f 93       	push	r24
    36e0:	9f 93       	push	r25
    36e2:	ef 93       	push	r30
    36e4:	ff 93       	push	r31
    36e6:	80 91 d0 00 	lds	r24, 0x00D0	; 0x8000d0 <__TEXT_REGION_LENGTH__+0x7000d0>
    36ea:	20 91 d6 00 	lds	r18, 0x00D6	; 0x8000d6 <__TEXT_REGION_LENGTH__+0x7000d6>
    36ee:	88 71       	andi	r24, 0x18	; 24
    36f0:	e0 91 8f 04 	lds	r30, 0x048F	; 0x80048f <_ZL12UART2_RxHead>
    36f4:	ef 5f       	subi	r30, 0xFF	; 255
    36f6:	ef 71       	andi	r30, 0x1F	; 31
    36f8:	90 91 8e 04 	lds	r25, 0x048E	; 0x80048e <_ZL12UART2_RxTail>
    36fc:	e9 17       	cp	r30, r25
    36fe:	39 f0       	breq	.+14     	; 0x370e <__vector_51+0x40>
    3700:	e0 93 8f 04 	sts	0x048F, r30	; 0x80048f <_ZL12UART2_RxHead>
    3704:	f0 e0       	ldi	r31, 0x00	; 0
    3706:	ee 56       	subi	r30, 0x6E	; 110
    3708:	fb 4f       	sbci	r31, 0xFB	; 251
    370a:	20 83       	st	Z, r18
    370c:	01 c0       	rjmp	.+2      	; 0x3710 <__vector_51+0x42>
    370e:	82 e0       	ldi	r24, 0x02	; 2
    3710:	80 93 8d 04 	sts	0x048D, r24	; 0x80048d <_ZL17UART2_LastRxError>
    3714:	ff 91       	pop	r31
    3716:	ef 91       	pop	r30
    3718:	9f 91       	pop	r25
    371a:	8f 91       	pop	r24
    371c:	2f 91       	pop	r18
    371e:	0f 90       	pop	r0
    3720:	0b be       	out	0x3b, r0	; 59
    3722:	0f 90       	pop	r0
    3724:	0f be       	out	0x3f, r0	; 63
    3726:	0f 90       	pop	r0
    3728:	1f 90       	pop	r1
    372a:	18 95       	reti

0000372c <__vector_52>:
    372c:	1f 92       	push	r1
    372e:	0f 92       	push	r0
    3730:	0f b6       	in	r0, 0x3f	; 63
    3732:	0f 92       	push	r0
    3734:	11 24       	eor	r1, r1
    3736:	0b b6       	in	r0, 0x3b	; 59
    3738:	0f 92       	push	r0
    373a:	8f 93       	push	r24
    373c:	9f 93       	push	r25
    373e:	ef 93       	push	r30
    3740:	ff 93       	push	r31
    3742:	90 91 91 04 	lds	r25, 0x0491	; 0x800491 <_ZL12UART2_TxHead>
    3746:	80 91 90 04 	lds	r24, 0x0490	; 0x800490 <_ZL12UART2_TxTail>
    374a:	98 17       	cp	r25, r24
    374c:	69 f0       	breq	.+26     	; 0x3768 <__vector_52+0x3c>
    374e:	e0 91 90 04 	lds	r30, 0x0490	; 0x800490 <_ZL12UART2_TxTail>
    3752:	ef 5f       	subi	r30, 0xFF	; 255
    3754:	ef 71       	andi	r30, 0x1F	; 31
    3756:	e0 93 90 04 	sts	0x0490, r30	; 0x800490 <_ZL12UART2_TxTail>
    375a:	f0 e0       	ldi	r31, 0x00	; 0
    375c:	ee 54       	subi	r30, 0x4E	; 78
    375e:	fb 4f       	sbci	r31, 0xFB	; 251
    3760:	80 81       	ld	r24, Z
    3762:	80 93 d6 00 	sts	0x00D6, r24	; 0x8000d6 <__TEXT_REGION_LENGTH__+0x7000d6>
    3766:	05 c0       	rjmp	.+10     	; 0x3772 <__vector_52+0x46>
    3768:	e1 ed       	ldi	r30, 0xD1	; 209
    376a:	f0 e0       	ldi	r31, 0x00	; 0
    376c:	80 81       	ld	r24, Z
    376e:	8f 7d       	andi	r24, 0xDF	; 223
    3770:	80 83       	st	Z, r24
    3772:	ff 91       	pop	r31
    3774:	ef 91       	pop	r30
    3776:	9f 91       	pop	r25
    3778:	8f 91       	pop	r24
    377a:	0f 90       	pop	r0
    377c:	0b be       	out	0x3b, r0	; 59
    377e:	0f 90       	pop	r0
    3780:	0f be       	out	0x3f, r0	; 63
    3782:	0f 90       	pop	r0
    3784:	1f 90       	pop	r1
    3786:	18 95       	reti

00003788 <_Z10uart2_initj>:
    3788:	10 92 91 04 	sts	0x0491, r1	; 0x800491 <_ZL12UART2_TxHead>
    378c:	10 92 90 04 	sts	0x0490, r1	; 0x800490 <_ZL12UART2_TxTail>
    3790:	10 92 8f 04 	sts	0x048F, r1	; 0x80048f <_ZL12UART2_RxHead>
    3794:	10 92 8e 04 	sts	0x048E, r1	; 0x80048e <_ZL12UART2_RxTail>
    3798:	99 23       	and	r25, r25
    379a:	24 f4       	brge	.+8      	; 0x37a4 <_Z10uart2_initj+0x1c>
    379c:	22 e0       	ldi	r18, 0x02	; 2
    379e:	20 93 d0 00 	sts	0x00D0, r18	; 0x8000d0 <__TEXT_REGION_LENGTH__+0x7000d0>
    37a2:	9f 77       	andi	r25, 0x7F	; 127
    37a4:	90 93 d5 00 	sts	0x00D5, r25	; 0x8000d5 <__TEXT_REGION_LENGTH__+0x7000d5>
    37a8:	80 93 d4 00 	sts	0x00D4, r24	; 0x8000d4 <__TEXT_REGION_LENGTH__+0x7000d4>
    37ac:	88 e9       	ldi	r24, 0x98	; 152
    37ae:	80 93 d1 00 	sts	0x00D1, r24	; 0x8000d1 <__TEXT_REGION_LENGTH__+0x7000d1>
    37b2:	86 e0       	ldi	r24, 0x06	; 6
    37b4:	80 93 d2 00 	sts	0x00D2, r24	; 0x8000d2 <__TEXT_REGION_LENGTH__+0x7000d2>
    37b8:	08 95       	ret

000037ba <_Z10uart2_putch>:
    37ba:	20 91 91 04 	lds	r18, 0x0491	; 0x800491 <_ZL12UART2_TxHead>
    37be:	2f 5f       	subi	r18, 0xFF	; 255
    37c0:	2f 71       	andi	r18, 0x1F	; 31
    37c2:	90 91 90 04 	lds	r25, 0x0490	; 0x800490 <_ZL12UART2_TxTail>
    37c6:	29 17       	cp	r18, r25
    37c8:	e1 f3       	breq	.-8      	; 0x37c2 <_Z10uart2_putch+0x8>
    37ca:	e2 2f       	mov	r30, r18
    37cc:	f0 e0       	ldi	r31, 0x00	; 0
    37ce:	ee 54       	subi	r30, 0x4E	; 78
    37d0:	fb 4f       	sbci	r31, 0xFB	; 251
    37d2:	80 83       	st	Z, r24
    37d4:	20 93 91 04 	sts	0x0491, r18	; 0x800491 <_ZL12UART2_TxHead>
    37d8:	e1 ed       	ldi	r30, 0xD1	; 209
    37da:	f0 e0       	ldi	r31, 0x00	; 0
    37dc:	80 81       	ld	r24, Z
    37de:	80 62       	ori	r24, 0x20	; 32
    37e0:	80 83       	st	Z, r24
    37e2:	08 95       	ret

000037e4 <__vector_54>:
ISR(UART3_RECEIVE_INTERRUPT)
/*************************************************************************
Function: UART3 Receive Complete interrupt
Purpose:  called when the UART3 has received a character
**************************************************************************/
{
    37e4:	1f 92       	push	r1
    37e6:	0f 92       	push	r0
    37e8:	0f b6       	in	r0, 0x3f	; 63
    37ea:	0f 92       	push	r0
    37ec:	11 24       	eor	r1, r1
    37ee:	0b b6       	in	r0, 0x3b	; 59
    37f0:	0f 92       	push	r0
    37f2:	2f 93       	push	r18
    37f4:	8f 93       	push	r24
    37f6:	9f 93       	push	r25
    37f8:	ef 93       	push	r30
    37fa:	ff 93       	push	r31
	unsigned char usr;
	unsigned char lastRxError;


	/* read UART status register and UART data register */
	usr = UART3_STATUS;
    37fc:	80 91 30 01 	lds	r24, 0x0130	; 0x800130 <__TEXT_REGION_LENGTH__+0x700130>
	data = UART3_DATA;
    3800:	20 91 36 01 	lds	r18, 0x0136	; 0x800136 <__TEXT_REGION_LENGTH__+0x700136>
	

	/* */
	lastRxError = (usr & (_BV(FE3) | _BV(DOR3)));
    3804:	88 71       	andi	r24, 0x18	; 24

	/* calculate buffer index */
	tmphead = (UART3_RxHead + 1) & UART_RX_BUFFER_MASK;
    3806:	e0 91 4a 04 	lds	r30, 0x044A	; 0x80044a <_ZL12UART3_RxHead>
    380a:	ef 5f       	subi	r30, 0xFF	; 255
    380c:	ef 71       	andi	r30, 0x1F	; 31

	if (tmphead == UART3_RxTail) {
    380e:	90 91 49 04 	lds	r25, 0x0449	; 0x800449 <_ZL12UART3_RxTail>
    3812:	e9 17       	cp	r30, r25
    3814:	39 f0       	breq	.+14     	; 0x3824 <__vector_54+0x40>
		/* error: receive buffer overflow */
		lastRxError = UART_BUFFER_OVERFLOW >> 8;
	}
	else {
		/* store new index */
		UART3_RxHead = tmphead;
    3816:	e0 93 4a 04 	sts	0x044A, r30	; 0x80044a <_ZL12UART3_RxHead>
		/* store received data in buffer */
		UART3_RxBuf[tmphead] = data;
    381a:	f0 e0       	ldi	r31, 0x00	; 0
    381c:	e3 5b       	subi	r30, 0xB3	; 179
    381e:	fb 4f       	sbci	r31, 0xFB	; 251
    3820:	20 83       	st	Z, r18
    3822:	01 c0       	rjmp	.+2      	; 0x3826 <__vector_54+0x42>
	/* calculate buffer index */
	tmphead = (UART3_RxHead + 1) & UART_RX_BUFFER_MASK;

	if (tmphead == UART3_RxTail) {
		/* error: receive buffer overflow */
		lastRxError = UART_BUFFER_OVERFLOW >> 8;
    3824:	82 e0       	ldi	r24, 0x02	; 2
		/* store new index */
		UART3_RxHead = tmphead;
		/* store received data in buffer */
		UART3_RxBuf[tmphead] = data;
	}
	UART3_LastRxError = lastRxError;
    3826:	80 93 48 04 	sts	0x0448, r24	; 0x800448 <_ZL17UART3_LastRxError>
}
    382a:	ff 91       	pop	r31
    382c:	ef 91       	pop	r30
    382e:	9f 91       	pop	r25
    3830:	8f 91       	pop	r24
    3832:	2f 91       	pop	r18
    3834:	0f 90       	pop	r0
    3836:	0b be       	out	0x3b, r0	; 59
    3838:	0f 90       	pop	r0
    383a:	0f be       	out	0x3f, r0	; 63
    383c:	0f 90       	pop	r0
    383e:	1f 90       	pop	r1
    3840:	18 95       	reti

00003842 <__vector_55>:
ISR(UART3_TRANSMIT_INTERRUPT)
/*************************************************************************
Function: UART3 Data Register Empty interrupt
Purpose:  called when the UART3 is ready to transmit the next byte
**************************************************************************/
{
    3842:	1f 92       	push	r1
    3844:	0f 92       	push	r0
    3846:	0f b6       	in	r0, 0x3f	; 63
    3848:	0f 92       	push	r0
    384a:	11 24       	eor	r1, r1
    384c:	0b b6       	in	r0, 0x3b	; 59
    384e:	0f 92       	push	r0
    3850:	8f 93       	push	r24
    3852:	9f 93       	push	r25
    3854:	ef 93       	push	r30
    3856:	ff 93       	push	r31
	unsigned char tmptail;


	if (UART3_TxHead != UART3_TxTail) {
    3858:	90 91 4c 04 	lds	r25, 0x044C	; 0x80044c <_ZL12UART3_TxHead>
    385c:	80 91 4b 04 	lds	r24, 0x044B	; 0x80044b <_ZL12UART3_TxTail>
    3860:	98 17       	cp	r25, r24
    3862:	69 f0       	breq	.+26     	; 0x387e <__vector_55+0x3c>
		/* calculate and store new buffer index */
		tmptail = (UART3_TxTail + 1) & UART_TX_BUFFER_MASK;
    3864:	e0 91 4b 04 	lds	r30, 0x044B	; 0x80044b <_ZL12UART3_TxTail>
    3868:	ef 5f       	subi	r30, 0xFF	; 255
    386a:	ef 71       	andi	r30, 0x1F	; 31
		UART3_TxTail = tmptail;
    386c:	e0 93 4b 04 	sts	0x044B, r30	; 0x80044b <_ZL12UART3_TxTail>
		/* get one byte from buffer and write it to UART */
		UART3_DATA = UART3_TxBuf[tmptail];  /* start transmission */
    3870:	f0 e0       	ldi	r31, 0x00	; 0
    3872:	e3 59       	subi	r30, 0x93	; 147
    3874:	fb 4f       	sbci	r31, 0xFB	; 251
    3876:	80 81       	ld	r24, Z
    3878:	80 93 36 01 	sts	0x0136, r24	; 0x800136 <__TEXT_REGION_LENGTH__+0x700136>
    387c:	05 c0       	rjmp	.+10     	; 0x3888 <__vector_55+0x46>
	}
	else {
		/* tx buffer empty, disable UDRE interrupt */
		UART3_CONTROL &= ~_BV(UART3_UDRIE);
    387e:	e1 e3       	ldi	r30, 0x31	; 49
    3880:	f1 e0       	ldi	r31, 0x01	; 1
    3882:	80 81       	ld	r24, Z
    3884:	8f 7d       	andi	r24, 0xDF	; 223
    3886:	80 83       	st	Z, r24
	}
}
    3888:	ff 91       	pop	r31
    388a:	ef 91       	pop	r30
    388c:	9f 91       	pop	r25
    388e:	8f 91       	pop	r24
    3890:	0f 90       	pop	r0
    3892:	0b be       	out	0x3b, r0	; 59
    3894:	0f 90       	pop	r0
    3896:	0f be       	out	0x3f, r0	; 63
    3898:	0f 90       	pop	r0
    389a:	1f 90       	pop	r1
    389c:	18 95       	reti

0000389e <_Z10uart3_initj>:
Input:    baudrate using macro UART_BAUD_SELECT()
Returns:  none
**************************************************************************/
void uart3_init(unsigned int baudrate)
{
	UART3_TxHead = 0;
    389e:	10 92 4c 04 	sts	0x044C, r1	; 0x80044c <_ZL12UART3_TxHead>
	UART3_TxTail = 0;
    38a2:	10 92 4b 04 	sts	0x044B, r1	; 0x80044b <_ZL12UART3_TxTail>
	UART3_RxHead = 0;
    38a6:	10 92 4a 04 	sts	0x044A, r1	; 0x80044a <_ZL12UART3_RxHead>
	UART3_RxTail = 0;
    38aa:	10 92 49 04 	sts	0x0449, r1	; 0x800449 <_ZL12UART3_RxTail>


	/* Set baud rate */
	if (baudrate & 0x8000)
    38ae:	99 23       	and	r25, r25
    38b0:	24 f4       	brge	.+8      	; 0x38ba <_Z10uart3_initj+0x1c>
	{
		UART3_STATUS = (3 << U2X3);  //Enable 2x speed 
    38b2:	26 e0       	ldi	r18, 0x06	; 6
    38b4:	20 93 30 01 	sts	0x0130, r18	; 0x800130 <__TEXT_REGION_LENGTH__+0x700130>
		baudrate &= ~0x8000;
    38b8:	9f 77       	andi	r25, 0x7F	; 127
	}
	UBRR3H = (unsigned char)(baudrate >> 8);
    38ba:	90 93 35 01 	sts	0x0135, r25	; 0x800135 <__TEXT_REGION_LENGTH__+0x700135>
	UBRR3L = (unsigned char)baudrate;
    38be:	80 93 34 01 	sts	0x0134, r24	; 0x800134 <__TEXT_REGION_LENGTH__+0x700134>

	/* Enable USART receiver and transmitter and receive complete interrupt */
	UART3_CONTROL = _BV(RXCIE3) | (1 << RXEN3) | (1 << TXEN3);
    38c2:	88 e9       	ldi	r24, 0x98	; 152
    38c4:	80 93 31 01 	sts	0x0131, r24	; 0x800131 <__TEXT_REGION_LENGTH__+0x700131>

	/* Set frame format: asynchronous, 8data, no parity, 1-stop bit */
#ifdef URSEL3
	UCSR3C = (1 << URSEL3) | (1 << UCSZ30) | ( 1 << UCSZ31);
#else
	UCSR3C = (1 << UCSZ30) | ( 1 << UCSZ31);
    38c8:	86 e0       	ldi	r24, 0x06	; 6
    38ca:	80 93 32 01 	sts	0x0132, r24	; 0x800132 <__TEXT_REGION_LENGTH__+0x700132>
    38ce:	08 95       	ret

000038d0 <_Z10uart3_getcv>:
{
	unsigned char tmptail;
	unsigned char data;


	if (UART3_RxHead == UART3_RxTail) {
    38d0:	90 91 4a 04 	lds	r25, 0x044A	; 0x80044a <_ZL12UART3_RxHead>
    38d4:	80 91 49 04 	lds	r24, 0x0449	; 0x800449 <_ZL12UART3_RxTail>
    38d8:	98 17       	cp	r25, r24
    38da:	91 f0       	breq	.+36     	; 0x3900 <_Z10uart3_getcv+0x30>
		 return UART_NO_DATA;   /* no data available */
	}

	/* calculate /store buffer index */
	tmptail = (UART3_RxTail + 1) & UART_RX_BUFFER_MASK;
    38dc:	e0 91 49 04 	lds	r30, 0x0449	; 0x800449 <_ZL12UART3_RxTail>
    38e0:	ef 5f       	subi	r30, 0xFF	; 255
    38e2:	ef 71       	andi	r30, 0x1F	; 31
	UART3_RxTail = tmptail;
    38e4:	e0 93 49 04 	sts	0x0449, r30	; 0x800449 <_ZL12UART3_RxTail>

	/* get data from receive buffer */
	data = UART3_RxBuf[tmptail];
    38e8:	f0 e0       	ldi	r31, 0x00	; 0
    38ea:	e3 5b       	subi	r30, 0xB3	; 179
    38ec:	fb 4f       	sbci	r31, 0xFB	; 251
    38ee:	20 81       	ld	r18, Z

	return (UART3_LastRxError << 8) + data;
    38f0:	80 91 48 04 	lds	r24, 0x0448	; 0x800448 <_ZL17UART3_LastRxError>
    38f4:	90 e0       	ldi	r25, 0x00	; 0
    38f6:	98 2f       	mov	r25, r24
    38f8:	88 27       	eor	r24, r24
    38fa:	82 0f       	add	r24, r18
    38fc:	91 1d       	adc	r25, r1
    38fe:	08 95       	ret
	unsigned char tmptail;
	unsigned char data;


	if (UART3_RxHead == UART3_RxTail) {
		 return UART_NO_DATA;   /* no data available */
    3900:	80 e0       	ldi	r24, 0x00	; 0
    3902:	91 e0       	ldi	r25, 0x01	; 1
	/* get data from receive buffer */
	data = UART3_RxBuf[tmptail];

	return (UART3_LastRxError << 8) + data;

}/* uart3_getc */
    3904:	08 95       	ret

00003906 <_Z10uart3_putch>:
void uart3_putc(unsigned char data)
{
	unsigned char tmphead;


	tmphead = (UART3_TxHead + 1) & UART_TX_BUFFER_MASK;
    3906:	20 91 4c 04 	lds	r18, 0x044C	; 0x80044c <_ZL12UART3_TxHead>
    390a:	2f 5f       	subi	r18, 0xFF	; 255
    390c:	2f 71       	andi	r18, 0x1F	; 31

	while (tmphead == UART3_TxTail) {
    390e:	90 91 4b 04 	lds	r25, 0x044B	; 0x80044b <_ZL12UART3_TxTail>
    3912:	29 17       	cp	r18, r25
    3914:	e1 f3       	breq	.-8      	; 0x390e <_Z10uart3_putch+0x8>
		;/* wait for free space in buffer */
	}

	UART3_TxBuf[tmphead] = data;
    3916:	e2 2f       	mov	r30, r18
    3918:	f0 e0       	ldi	r31, 0x00	; 0
    391a:	e3 59       	subi	r30, 0x93	; 147
    391c:	fb 4f       	sbci	r31, 0xFB	; 251
    391e:	80 83       	st	Z, r24
	UART3_TxHead = tmphead;
    3920:	20 93 4c 04 	sts	0x044C, r18	; 0x80044c <_ZL12UART3_TxHead>

	/* enable UDRE interrupt */
	UART3_CONTROL |= _BV(UART3_UDRIE);
    3924:	e1 e3       	ldi	r30, 0x31	; 49
    3926:	f1 e0       	ldi	r31, 0x01	; 1
    3928:	80 81       	ld	r24, Z
    392a:	80 62       	ori	r24, 0x20	; 32
    392c:	80 83       	st	Z, r24
    392e:	08 95       	ret

00003930 <__subsf3>:
    3930:	50 58       	subi	r21, 0x80	; 128

00003932 <__addsf3>:
    3932:	bb 27       	eor	r27, r27
    3934:	aa 27       	eor	r26, r26
    3936:	0e d0       	rcall	.+28     	; 0x3954 <__addsf3x>
    3938:	27 c2       	rjmp	.+1102   	; 0x3d88 <__fp_round>
    393a:	f0 d1       	rcall	.+992    	; 0x3d1c <__fp_pscA>
    393c:	30 f0       	brcs	.+12     	; 0x394a <__addsf3+0x18>
    393e:	f5 d1       	rcall	.+1002   	; 0x3d2a <__fp_pscB>
    3940:	20 f0       	brcs	.+8      	; 0x394a <__addsf3+0x18>
    3942:	31 f4       	brne	.+12     	; 0x3950 <__addsf3+0x1e>
    3944:	9f 3f       	cpi	r25, 0xFF	; 255
    3946:	11 f4       	brne	.+4      	; 0x394c <__addsf3+0x1a>
    3948:	1e f4       	brtc	.+6      	; 0x3950 <__addsf3+0x1e>
    394a:	c0 c1       	rjmp	.+896    	; 0x3ccc <__fp_nan>
    394c:	0e f4       	brtc	.+2      	; 0x3950 <__addsf3+0x1e>
    394e:	e0 95       	com	r30
    3950:	e7 fb       	bst	r30, 7
    3952:	b6 c1       	rjmp	.+876    	; 0x3cc0 <__fp_inf>

00003954 <__addsf3x>:
    3954:	e9 2f       	mov	r30, r25
    3956:	3a d2       	rcall	.+1140   	; 0x3dcc <__fp_split3>
    3958:	80 f3       	brcs	.-32     	; 0x393a <__addsf3+0x8>
    395a:	ba 17       	cp	r27, r26
    395c:	62 07       	cpc	r22, r18
    395e:	73 07       	cpc	r23, r19
    3960:	84 07       	cpc	r24, r20
    3962:	95 07       	cpc	r25, r21
    3964:	18 f0       	brcs	.+6      	; 0x396c <__addsf3x+0x18>
    3966:	71 f4       	brne	.+28     	; 0x3984 <__addsf3x+0x30>
    3968:	9e f5       	brtc	.+102    	; 0x39d0 <__addsf3x+0x7c>
    396a:	52 c2       	rjmp	.+1188   	; 0x3e10 <__fp_zero>
    396c:	0e f4       	brtc	.+2      	; 0x3970 <__addsf3x+0x1c>
    396e:	e0 95       	com	r30
    3970:	0b 2e       	mov	r0, r27
    3972:	ba 2f       	mov	r27, r26
    3974:	a0 2d       	mov	r26, r0
    3976:	0b 01       	movw	r0, r22
    3978:	b9 01       	movw	r22, r18
    397a:	90 01       	movw	r18, r0
    397c:	0c 01       	movw	r0, r24
    397e:	ca 01       	movw	r24, r20
    3980:	a0 01       	movw	r20, r0
    3982:	11 24       	eor	r1, r1
    3984:	ff 27       	eor	r31, r31
    3986:	59 1b       	sub	r21, r25
    3988:	99 f0       	breq	.+38     	; 0x39b0 <__addsf3x+0x5c>
    398a:	59 3f       	cpi	r21, 0xF9	; 249
    398c:	50 f4       	brcc	.+20     	; 0x39a2 <__addsf3x+0x4e>
    398e:	50 3e       	cpi	r21, 0xE0	; 224
    3990:	68 f1       	brcs	.+90     	; 0x39ec <__addsf3x+0x98>
    3992:	1a 16       	cp	r1, r26
    3994:	f0 40       	sbci	r31, 0x00	; 0
    3996:	a2 2f       	mov	r26, r18
    3998:	23 2f       	mov	r18, r19
    399a:	34 2f       	mov	r19, r20
    399c:	44 27       	eor	r20, r20
    399e:	58 5f       	subi	r21, 0xF8	; 248
    39a0:	f3 cf       	rjmp	.-26     	; 0x3988 <__addsf3x+0x34>
    39a2:	46 95       	lsr	r20
    39a4:	37 95       	ror	r19
    39a6:	27 95       	ror	r18
    39a8:	a7 95       	ror	r26
    39aa:	f0 40       	sbci	r31, 0x00	; 0
    39ac:	53 95       	inc	r21
    39ae:	c9 f7       	brne	.-14     	; 0x39a2 <__addsf3x+0x4e>
    39b0:	7e f4       	brtc	.+30     	; 0x39d0 <__addsf3x+0x7c>
    39b2:	1f 16       	cp	r1, r31
    39b4:	ba 0b       	sbc	r27, r26
    39b6:	62 0b       	sbc	r22, r18
    39b8:	73 0b       	sbc	r23, r19
    39ba:	84 0b       	sbc	r24, r20
    39bc:	ba f0       	brmi	.+46     	; 0x39ec <__addsf3x+0x98>
    39be:	91 50       	subi	r25, 0x01	; 1
    39c0:	a1 f0       	breq	.+40     	; 0x39ea <__addsf3x+0x96>
    39c2:	ff 0f       	add	r31, r31
    39c4:	bb 1f       	adc	r27, r27
    39c6:	66 1f       	adc	r22, r22
    39c8:	77 1f       	adc	r23, r23
    39ca:	88 1f       	adc	r24, r24
    39cc:	c2 f7       	brpl	.-16     	; 0x39be <__addsf3x+0x6a>
    39ce:	0e c0       	rjmp	.+28     	; 0x39ec <__addsf3x+0x98>
    39d0:	ba 0f       	add	r27, r26
    39d2:	62 1f       	adc	r22, r18
    39d4:	73 1f       	adc	r23, r19
    39d6:	84 1f       	adc	r24, r20
    39d8:	48 f4       	brcc	.+18     	; 0x39ec <__addsf3x+0x98>
    39da:	87 95       	ror	r24
    39dc:	77 95       	ror	r23
    39de:	67 95       	ror	r22
    39e0:	b7 95       	ror	r27
    39e2:	f7 95       	ror	r31
    39e4:	9e 3f       	cpi	r25, 0xFE	; 254
    39e6:	08 f0       	brcs	.+2      	; 0x39ea <__addsf3x+0x96>
    39e8:	b3 cf       	rjmp	.-154    	; 0x3950 <__addsf3+0x1e>
    39ea:	93 95       	inc	r25
    39ec:	88 0f       	add	r24, r24
    39ee:	08 f0       	brcs	.+2      	; 0x39f2 <__addsf3x+0x9e>
    39f0:	99 27       	eor	r25, r25
    39f2:	ee 0f       	add	r30, r30
    39f4:	97 95       	ror	r25
    39f6:	87 95       	ror	r24
    39f8:	08 95       	ret
    39fa:	90 d1       	rcall	.+800    	; 0x3d1c <__fp_pscA>
    39fc:	58 f0       	brcs	.+22     	; 0x3a14 <__addsf3x+0xc0>
    39fe:	80 e8       	ldi	r24, 0x80	; 128
    3a00:	91 e0       	ldi	r25, 0x01	; 1
    3a02:	09 f4       	brne	.+2      	; 0x3a06 <__addsf3x+0xb2>
    3a04:	9e ef       	ldi	r25, 0xFE	; 254
    3a06:	91 d1       	rcall	.+802    	; 0x3d2a <__fp_pscB>
    3a08:	28 f0       	brcs	.+10     	; 0x3a14 <__addsf3x+0xc0>
    3a0a:	40 e8       	ldi	r20, 0x80	; 128
    3a0c:	51 e0       	ldi	r21, 0x01	; 1
    3a0e:	59 f4       	brne	.+22     	; 0x3a26 <atan2+0xe>
    3a10:	5e ef       	ldi	r21, 0xFE	; 254
    3a12:	09 c0       	rjmp	.+18     	; 0x3a26 <atan2+0xe>
    3a14:	5b c1       	rjmp	.+694    	; 0x3ccc <__fp_nan>
    3a16:	fc c1       	rjmp	.+1016   	; 0x3e10 <__fp_zero>

00003a18 <atan2>:
    3a18:	e9 2f       	mov	r30, r25
    3a1a:	e0 78       	andi	r30, 0x80	; 128
    3a1c:	d7 d1       	rcall	.+942    	; 0x3dcc <__fp_split3>
    3a1e:	68 f3       	brcs	.-38     	; 0x39fa <__addsf3x+0xa6>
    3a20:	09 2e       	mov	r0, r25
    3a22:	05 2a       	or	r0, r21
    3a24:	c1 f3       	breq	.-16     	; 0x3a16 <__addsf3x+0xc2>
    3a26:	26 17       	cp	r18, r22
    3a28:	37 07       	cpc	r19, r23
    3a2a:	48 07       	cpc	r20, r24
    3a2c:	59 07       	cpc	r21, r25
    3a2e:	38 f0       	brcs	.+14     	; 0x3a3e <atan2+0x26>
    3a30:	0e 2e       	mov	r0, r30
    3a32:	07 f8       	bld	r0, 7
    3a34:	e0 25       	eor	r30, r0
    3a36:	69 f0       	breq	.+26     	; 0x3a52 <atan2+0x3a>
    3a38:	e0 25       	eor	r30, r0
    3a3a:	e0 64       	ori	r30, 0x40	; 64
    3a3c:	0a c0       	rjmp	.+20     	; 0x3a52 <atan2+0x3a>
    3a3e:	ef 63       	ori	r30, 0x3F	; 63
    3a40:	07 f8       	bld	r0, 7
    3a42:	00 94       	com	r0
    3a44:	07 fa       	bst	r0, 7
    3a46:	db 01       	movw	r26, r22
    3a48:	b9 01       	movw	r22, r18
    3a4a:	9d 01       	movw	r18, r26
    3a4c:	dc 01       	movw	r26, r24
    3a4e:	ca 01       	movw	r24, r20
    3a50:	ad 01       	movw	r20, r26
    3a52:	ef 93       	push	r30
    3a54:	4a d0       	rcall	.+148    	; 0x3aea <__divsf3_pse>
    3a56:	98 d1       	rcall	.+816    	; 0x3d88 <__fp_round>
    3a58:	0a d0       	rcall	.+20     	; 0x3a6e <atan>
    3a5a:	5f 91       	pop	r21
    3a5c:	55 23       	and	r21, r21
    3a5e:	31 f0       	breq	.+12     	; 0x3a6c <atan2+0x54>
    3a60:	2b ed       	ldi	r18, 0xDB	; 219
    3a62:	3f e0       	ldi	r19, 0x0F	; 15
    3a64:	49 e4       	ldi	r20, 0x49	; 73
    3a66:	50 fd       	sbrc	r21, 0
    3a68:	49 ec       	ldi	r20, 0xC9	; 201
    3a6a:	63 cf       	rjmp	.-314    	; 0x3932 <__addsf3>
    3a6c:	08 95       	ret

00003a6e <atan>:
    3a6e:	df 93       	push	r29
    3a70:	dd 27       	eor	r29, r29
    3a72:	b9 2f       	mov	r27, r25
    3a74:	bf 77       	andi	r27, 0x7F	; 127
    3a76:	40 e8       	ldi	r20, 0x80	; 128
    3a78:	5f e3       	ldi	r21, 0x3F	; 63
    3a7a:	16 16       	cp	r1, r22
    3a7c:	17 06       	cpc	r1, r23
    3a7e:	48 07       	cpc	r20, r24
    3a80:	5b 07       	cpc	r21, r27
    3a82:	10 f4       	brcc	.+4      	; 0x3a88 <atan+0x1a>
    3a84:	d9 2f       	mov	r29, r25
    3a86:	cf d1       	rcall	.+926    	; 0x3e26 <inverse>
    3a88:	9f 93       	push	r25
    3a8a:	8f 93       	push	r24
    3a8c:	7f 93       	push	r23
    3a8e:	6f 93       	push	r22
    3a90:	7c d2       	rcall	.+1272   	; 0x3f8a <square>
    3a92:	e4 ee       	ldi	r30, 0xE4	; 228
    3a94:	f0 e0       	ldi	r31, 0x00	; 0
    3a96:	1d d1       	rcall	.+570    	; 0x3cd2 <__fp_powser>
    3a98:	77 d1       	rcall	.+750    	; 0x3d88 <__fp_round>
    3a9a:	2f 91       	pop	r18
    3a9c:	3f 91       	pop	r19
    3a9e:	4f 91       	pop	r20
    3aa0:	5f 91       	pop	r21
    3aa2:	d4 d1       	rcall	.+936    	; 0x3e4c <__mulsf3x>
    3aa4:	dd 23       	and	r29, r29
    3aa6:	49 f0       	breq	.+18     	; 0x3aba <atan+0x4c>
    3aa8:	90 58       	subi	r25, 0x80	; 128
    3aaa:	a2 ea       	ldi	r26, 0xA2	; 162
    3aac:	2a ed       	ldi	r18, 0xDA	; 218
    3aae:	3f e0       	ldi	r19, 0x0F	; 15
    3ab0:	49 ec       	ldi	r20, 0xC9	; 201
    3ab2:	5f e3       	ldi	r21, 0x3F	; 63
    3ab4:	d0 78       	andi	r29, 0x80	; 128
    3ab6:	5d 27       	eor	r21, r29
    3ab8:	4d df       	rcall	.-358    	; 0x3954 <__addsf3x>
    3aba:	df 91       	pop	r29
    3abc:	65 c1       	rjmp	.+714    	; 0x3d88 <__fp_round>

00003abe <__cmpsf2>:
    3abe:	dc d0       	rcall	.+440    	; 0x3c78 <__fp_cmp>
    3ac0:	08 f4       	brcc	.+2      	; 0x3ac4 <__cmpsf2+0x6>
    3ac2:	81 e0       	ldi	r24, 0x01	; 1
    3ac4:	08 95       	ret

00003ac6 <cos>:
    3ac6:	39 d1       	rcall	.+626    	; 0x3d3a <__fp_rempio2>
    3ac8:	e3 95       	inc	r30
    3aca:	6f c1       	rjmp	.+734    	; 0x3daa <__fp_sinus>

00003acc <__divsf3>:
    3acc:	0c d0       	rcall	.+24     	; 0x3ae6 <__divsf3x>
    3ace:	5c c1       	rjmp	.+696    	; 0x3d88 <__fp_round>
    3ad0:	2c d1       	rcall	.+600    	; 0x3d2a <__fp_pscB>
    3ad2:	40 f0       	brcs	.+16     	; 0x3ae4 <__divsf3+0x18>
    3ad4:	23 d1       	rcall	.+582    	; 0x3d1c <__fp_pscA>
    3ad6:	30 f0       	brcs	.+12     	; 0x3ae4 <__divsf3+0x18>
    3ad8:	21 f4       	brne	.+8      	; 0x3ae2 <__divsf3+0x16>
    3ada:	5f 3f       	cpi	r21, 0xFF	; 255
    3adc:	19 f0       	breq	.+6      	; 0x3ae4 <__divsf3+0x18>
    3ade:	f0 c0       	rjmp	.+480    	; 0x3cc0 <__fp_inf>
    3ae0:	51 11       	cpse	r21, r1
    3ae2:	97 c1       	rjmp	.+814    	; 0x3e12 <__fp_szero>
    3ae4:	f3 c0       	rjmp	.+486    	; 0x3ccc <__fp_nan>

00003ae6 <__divsf3x>:
    3ae6:	72 d1       	rcall	.+740    	; 0x3dcc <__fp_split3>
    3ae8:	98 f3       	brcs	.-26     	; 0x3ad0 <__divsf3+0x4>

00003aea <__divsf3_pse>:
    3aea:	99 23       	and	r25, r25
    3aec:	c9 f3       	breq	.-14     	; 0x3ae0 <__divsf3+0x14>
    3aee:	55 23       	and	r21, r21
    3af0:	b1 f3       	breq	.-20     	; 0x3ade <__divsf3+0x12>
    3af2:	95 1b       	sub	r25, r21
    3af4:	55 0b       	sbc	r21, r21
    3af6:	bb 27       	eor	r27, r27
    3af8:	aa 27       	eor	r26, r26
    3afa:	62 17       	cp	r22, r18
    3afc:	73 07       	cpc	r23, r19
    3afe:	84 07       	cpc	r24, r20
    3b00:	38 f0       	brcs	.+14     	; 0x3b10 <__divsf3_pse+0x26>
    3b02:	9f 5f       	subi	r25, 0xFF	; 255
    3b04:	5f 4f       	sbci	r21, 0xFF	; 255
    3b06:	22 0f       	add	r18, r18
    3b08:	33 1f       	adc	r19, r19
    3b0a:	44 1f       	adc	r20, r20
    3b0c:	aa 1f       	adc	r26, r26
    3b0e:	a9 f3       	breq	.-22     	; 0x3afa <__divsf3_pse+0x10>
    3b10:	33 d0       	rcall	.+102    	; 0x3b78 <__divsf3_pse+0x8e>
    3b12:	0e 2e       	mov	r0, r30
    3b14:	3a f0       	brmi	.+14     	; 0x3b24 <__divsf3_pse+0x3a>
    3b16:	e0 e8       	ldi	r30, 0x80	; 128
    3b18:	30 d0       	rcall	.+96     	; 0x3b7a <__divsf3_pse+0x90>
    3b1a:	91 50       	subi	r25, 0x01	; 1
    3b1c:	50 40       	sbci	r21, 0x00	; 0
    3b1e:	e6 95       	lsr	r30
    3b20:	00 1c       	adc	r0, r0
    3b22:	ca f7       	brpl	.-14     	; 0x3b16 <__divsf3_pse+0x2c>
    3b24:	29 d0       	rcall	.+82     	; 0x3b78 <__divsf3_pse+0x8e>
    3b26:	fe 2f       	mov	r31, r30
    3b28:	27 d0       	rcall	.+78     	; 0x3b78 <__divsf3_pse+0x8e>
    3b2a:	66 0f       	add	r22, r22
    3b2c:	77 1f       	adc	r23, r23
    3b2e:	88 1f       	adc	r24, r24
    3b30:	bb 1f       	adc	r27, r27
    3b32:	26 17       	cp	r18, r22
    3b34:	37 07       	cpc	r19, r23
    3b36:	48 07       	cpc	r20, r24
    3b38:	ab 07       	cpc	r26, r27
    3b3a:	b0 e8       	ldi	r27, 0x80	; 128
    3b3c:	09 f0       	breq	.+2      	; 0x3b40 <__divsf3_pse+0x56>
    3b3e:	bb 0b       	sbc	r27, r27
    3b40:	80 2d       	mov	r24, r0
    3b42:	bf 01       	movw	r22, r30
    3b44:	ff 27       	eor	r31, r31
    3b46:	93 58       	subi	r25, 0x83	; 131
    3b48:	5f 4f       	sbci	r21, 0xFF	; 255
    3b4a:	2a f0       	brmi	.+10     	; 0x3b56 <__divsf3_pse+0x6c>
    3b4c:	9e 3f       	cpi	r25, 0xFE	; 254
    3b4e:	51 05       	cpc	r21, r1
    3b50:	68 f0       	brcs	.+26     	; 0x3b6c <__divsf3_pse+0x82>
    3b52:	b6 c0       	rjmp	.+364    	; 0x3cc0 <__fp_inf>
    3b54:	5e c1       	rjmp	.+700    	; 0x3e12 <__fp_szero>
    3b56:	5f 3f       	cpi	r21, 0xFF	; 255
    3b58:	ec f3       	brlt	.-6      	; 0x3b54 <__divsf3_pse+0x6a>
    3b5a:	98 3e       	cpi	r25, 0xE8	; 232
    3b5c:	dc f3       	brlt	.-10     	; 0x3b54 <__divsf3_pse+0x6a>
    3b5e:	86 95       	lsr	r24
    3b60:	77 95       	ror	r23
    3b62:	67 95       	ror	r22
    3b64:	b7 95       	ror	r27
    3b66:	f7 95       	ror	r31
    3b68:	9f 5f       	subi	r25, 0xFF	; 255
    3b6a:	c9 f7       	brne	.-14     	; 0x3b5e <__divsf3_pse+0x74>
    3b6c:	88 0f       	add	r24, r24
    3b6e:	91 1d       	adc	r25, r1
    3b70:	96 95       	lsr	r25
    3b72:	87 95       	ror	r24
    3b74:	97 f9       	bld	r25, 7
    3b76:	08 95       	ret
    3b78:	e1 e0       	ldi	r30, 0x01	; 1
    3b7a:	66 0f       	add	r22, r22
    3b7c:	77 1f       	adc	r23, r23
    3b7e:	88 1f       	adc	r24, r24
    3b80:	bb 1f       	adc	r27, r27
    3b82:	62 17       	cp	r22, r18
    3b84:	73 07       	cpc	r23, r19
    3b86:	84 07       	cpc	r24, r20
    3b88:	ba 07       	cpc	r27, r26
    3b8a:	20 f0       	brcs	.+8      	; 0x3b94 <__divsf3_pse+0xaa>
    3b8c:	62 1b       	sub	r22, r18
    3b8e:	73 0b       	sbc	r23, r19
    3b90:	84 0b       	sbc	r24, r20
    3b92:	ba 0b       	sbc	r27, r26
    3b94:	ee 1f       	adc	r30, r30
    3b96:	88 f7       	brcc	.-30     	; 0x3b7a <__divsf3_pse+0x90>
    3b98:	e0 95       	com	r30
    3b9a:	08 95       	ret

00003b9c <__fixsfsi>:
    3b9c:	04 d0       	rcall	.+8      	; 0x3ba6 <__fixunssfsi>
    3b9e:	68 94       	set
    3ba0:	b1 11       	cpse	r27, r1
    3ba2:	37 c1       	rjmp	.+622    	; 0x3e12 <__fp_szero>
    3ba4:	08 95       	ret

00003ba6 <__fixunssfsi>:
    3ba6:	1a d1       	rcall	.+564    	; 0x3ddc <__fp_splitA>
    3ba8:	88 f0       	brcs	.+34     	; 0x3bcc <__fixunssfsi+0x26>
    3baa:	9f 57       	subi	r25, 0x7F	; 127
    3bac:	90 f0       	brcs	.+36     	; 0x3bd2 <__fixunssfsi+0x2c>
    3bae:	b9 2f       	mov	r27, r25
    3bb0:	99 27       	eor	r25, r25
    3bb2:	b7 51       	subi	r27, 0x17	; 23
    3bb4:	a0 f0       	brcs	.+40     	; 0x3bde <__fixunssfsi+0x38>
    3bb6:	d1 f0       	breq	.+52     	; 0x3bec <__fixunssfsi+0x46>
    3bb8:	66 0f       	add	r22, r22
    3bba:	77 1f       	adc	r23, r23
    3bbc:	88 1f       	adc	r24, r24
    3bbe:	99 1f       	adc	r25, r25
    3bc0:	1a f0       	brmi	.+6      	; 0x3bc8 <__fixunssfsi+0x22>
    3bc2:	ba 95       	dec	r27
    3bc4:	c9 f7       	brne	.-14     	; 0x3bb8 <__fixunssfsi+0x12>
    3bc6:	12 c0       	rjmp	.+36     	; 0x3bec <__fixunssfsi+0x46>
    3bc8:	b1 30       	cpi	r27, 0x01	; 1
    3bca:	81 f0       	breq	.+32     	; 0x3bec <__fixunssfsi+0x46>
    3bcc:	21 d1       	rcall	.+578    	; 0x3e10 <__fp_zero>
    3bce:	b1 e0       	ldi	r27, 0x01	; 1
    3bd0:	08 95       	ret
    3bd2:	1e c1       	rjmp	.+572    	; 0x3e10 <__fp_zero>
    3bd4:	67 2f       	mov	r22, r23
    3bd6:	78 2f       	mov	r23, r24
    3bd8:	88 27       	eor	r24, r24
    3bda:	b8 5f       	subi	r27, 0xF8	; 248
    3bdc:	39 f0       	breq	.+14     	; 0x3bec <__fixunssfsi+0x46>
    3bde:	b9 3f       	cpi	r27, 0xF9	; 249
    3be0:	cc f3       	brlt	.-14     	; 0x3bd4 <__fixunssfsi+0x2e>
    3be2:	86 95       	lsr	r24
    3be4:	77 95       	ror	r23
    3be6:	67 95       	ror	r22
    3be8:	b3 95       	inc	r27
    3bea:	d9 f7       	brne	.-10     	; 0x3be2 <__fixunssfsi+0x3c>
    3bec:	3e f4       	brtc	.+14     	; 0x3bfc <__fixunssfsi+0x56>
    3bee:	90 95       	com	r25
    3bf0:	80 95       	com	r24
    3bf2:	70 95       	com	r23
    3bf4:	61 95       	neg	r22
    3bf6:	7f 4f       	sbci	r23, 0xFF	; 255
    3bf8:	8f 4f       	sbci	r24, 0xFF	; 255
    3bfa:	9f 4f       	sbci	r25, 0xFF	; 255
    3bfc:	08 95       	ret

00003bfe <__floatunsisf>:
    3bfe:	e8 94       	clt
    3c00:	09 c0       	rjmp	.+18     	; 0x3c14 <__floatsisf+0x12>

00003c02 <__floatsisf>:
    3c02:	97 fb       	bst	r25, 7
    3c04:	3e f4       	brtc	.+14     	; 0x3c14 <__floatsisf+0x12>
    3c06:	90 95       	com	r25
    3c08:	80 95       	com	r24
    3c0a:	70 95       	com	r23
    3c0c:	61 95       	neg	r22
    3c0e:	7f 4f       	sbci	r23, 0xFF	; 255
    3c10:	8f 4f       	sbci	r24, 0xFF	; 255
    3c12:	9f 4f       	sbci	r25, 0xFF	; 255
    3c14:	99 23       	and	r25, r25
    3c16:	a9 f0       	breq	.+42     	; 0x3c42 <__floatsisf+0x40>
    3c18:	f9 2f       	mov	r31, r25
    3c1a:	96 e9       	ldi	r25, 0x96	; 150
    3c1c:	bb 27       	eor	r27, r27
    3c1e:	93 95       	inc	r25
    3c20:	f6 95       	lsr	r31
    3c22:	87 95       	ror	r24
    3c24:	77 95       	ror	r23
    3c26:	67 95       	ror	r22
    3c28:	b7 95       	ror	r27
    3c2a:	f1 11       	cpse	r31, r1
    3c2c:	f8 cf       	rjmp	.-16     	; 0x3c1e <__floatsisf+0x1c>
    3c2e:	fa f4       	brpl	.+62     	; 0x3c6e <__floatsisf+0x6c>
    3c30:	bb 0f       	add	r27, r27
    3c32:	11 f4       	brne	.+4      	; 0x3c38 <__floatsisf+0x36>
    3c34:	60 ff       	sbrs	r22, 0
    3c36:	1b c0       	rjmp	.+54     	; 0x3c6e <__floatsisf+0x6c>
    3c38:	6f 5f       	subi	r22, 0xFF	; 255
    3c3a:	7f 4f       	sbci	r23, 0xFF	; 255
    3c3c:	8f 4f       	sbci	r24, 0xFF	; 255
    3c3e:	9f 4f       	sbci	r25, 0xFF	; 255
    3c40:	16 c0       	rjmp	.+44     	; 0x3c6e <__floatsisf+0x6c>
    3c42:	88 23       	and	r24, r24
    3c44:	11 f0       	breq	.+4      	; 0x3c4a <__floatsisf+0x48>
    3c46:	96 e9       	ldi	r25, 0x96	; 150
    3c48:	11 c0       	rjmp	.+34     	; 0x3c6c <__floatsisf+0x6a>
    3c4a:	77 23       	and	r23, r23
    3c4c:	21 f0       	breq	.+8      	; 0x3c56 <__floatsisf+0x54>
    3c4e:	9e e8       	ldi	r25, 0x8E	; 142
    3c50:	87 2f       	mov	r24, r23
    3c52:	76 2f       	mov	r23, r22
    3c54:	05 c0       	rjmp	.+10     	; 0x3c60 <__floatsisf+0x5e>
    3c56:	66 23       	and	r22, r22
    3c58:	71 f0       	breq	.+28     	; 0x3c76 <__floatsisf+0x74>
    3c5a:	96 e8       	ldi	r25, 0x86	; 134
    3c5c:	86 2f       	mov	r24, r22
    3c5e:	70 e0       	ldi	r23, 0x00	; 0
    3c60:	60 e0       	ldi	r22, 0x00	; 0
    3c62:	2a f0       	brmi	.+10     	; 0x3c6e <__floatsisf+0x6c>
    3c64:	9a 95       	dec	r25
    3c66:	66 0f       	add	r22, r22
    3c68:	77 1f       	adc	r23, r23
    3c6a:	88 1f       	adc	r24, r24
    3c6c:	da f7       	brpl	.-10     	; 0x3c64 <__floatsisf+0x62>
    3c6e:	88 0f       	add	r24, r24
    3c70:	96 95       	lsr	r25
    3c72:	87 95       	ror	r24
    3c74:	97 f9       	bld	r25, 7
    3c76:	08 95       	ret

00003c78 <__fp_cmp>:
    3c78:	99 0f       	add	r25, r25
    3c7a:	00 08       	sbc	r0, r0
    3c7c:	55 0f       	add	r21, r21
    3c7e:	aa 0b       	sbc	r26, r26
    3c80:	e0 e8       	ldi	r30, 0x80	; 128
    3c82:	fe ef       	ldi	r31, 0xFE	; 254
    3c84:	16 16       	cp	r1, r22
    3c86:	17 06       	cpc	r1, r23
    3c88:	e8 07       	cpc	r30, r24
    3c8a:	f9 07       	cpc	r31, r25
    3c8c:	c0 f0       	brcs	.+48     	; 0x3cbe <__fp_cmp+0x46>
    3c8e:	12 16       	cp	r1, r18
    3c90:	13 06       	cpc	r1, r19
    3c92:	e4 07       	cpc	r30, r20
    3c94:	f5 07       	cpc	r31, r21
    3c96:	98 f0       	brcs	.+38     	; 0x3cbe <__fp_cmp+0x46>
    3c98:	62 1b       	sub	r22, r18
    3c9a:	73 0b       	sbc	r23, r19
    3c9c:	84 0b       	sbc	r24, r20
    3c9e:	95 0b       	sbc	r25, r21
    3ca0:	39 f4       	brne	.+14     	; 0x3cb0 <__fp_cmp+0x38>
    3ca2:	0a 26       	eor	r0, r26
    3ca4:	61 f0       	breq	.+24     	; 0x3cbe <__fp_cmp+0x46>
    3ca6:	23 2b       	or	r18, r19
    3ca8:	24 2b       	or	r18, r20
    3caa:	25 2b       	or	r18, r21
    3cac:	21 f4       	brne	.+8      	; 0x3cb6 <__fp_cmp+0x3e>
    3cae:	08 95       	ret
    3cb0:	0a 26       	eor	r0, r26
    3cb2:	09 f4       	brne	.+2      	; 0x3cb6 <__fp_cmp+0x3e>
    3cb4:	a1 40       	sbci	r26, 0x01	; 1
    3cb6:	a6 95       	lsr	r26
    3cb8:	8f ef       	ldi	r24, 0xFF	; 255
    3cba:	81 1d       	adc	r24, r1
    3cbc:	81 1d       	adc	r24, r1
    3cbe:	08 95       	ret

00003cc0 <__fp_inf>:
    3cc0:	97 f9       	bld	r25, 7
    3cc2:	9f 67       	ori	r25, 0x7F	; 127
    3cc4:	80 e8       	ldi	r24, 0x80	; 128
    3cc6:	70 e0       	ldi	r23, 0x00	; 0
    3cc8:	60 e0       	ldi	r22, 0x00	; 0
    3cca:	08 95       	ret

00003ccc <__fp_nan>:
    3ccc:	9f ef       	ldi	r25, 0xFF	; 255
    3cce:	80 ec       	ldi	r24, 0xC0	; 192
    3cd0:	08 95       	ret

00003cd2 <__fp_powser>:
    3cd2:	df 93       	push	r29
    3cd4:	cf 93       	push	r28
    3cd6:	1f 93       	push	r17
    3cd8:	0f 93       	push	r16
    3cda:	ff 92       	push	r15
    3cdc:	ef 92       	push	r14
    3cde:	df 92       	push	r13
    3ce0:	7b 01       	movw	r14, r22
    3ce2:	8c 01       	movw	r16, r24
    3ce4:	68 94       	set
    3ce6:	05 c0       	rjmp	.+10     	; 0x3cf2 <__fp_powser+0x20>
    3ce8:	da 2e       	mov	r13, r26
    3cea:	ef 01       	movw	r28, r30
    3cec:	af d0       	rcall	.+350    	; 0x3e4c <__mulsf3x>
    3cee:	fe 01       	movw	r30, r28
    3cf0:	e8 94       	clt
    3cf2:	a5 91       	lpm	r26, Z+
    3cf4:	25 91       	lpm	r18, Z+
    3cf6:	35 91       	lpm	r19, Z+
    3cf8:	45 91       	lpm	r20, Z+
    3cfa:	55 91       	lpm	r21, Z+
    3cfc:	ae f3       	brts	.-22     	; 0x3ce8 <__fp_powser+0x16>
    3cfe:	ef 01       	movw	r28, r30
    3d00:	29 de       	rcall	.-942    	; 0x3954 <__addsf3x>
    3d02:	fe 01       	movw	r30, r28
    3d04:	97 01       	movw	r18, r14
    3d06:	a8 01       	movw	r20, r16
    3d08:	da 94       	dec	r13
    3d0a:	79 f7       	brne	.-34     	; 0x3cea <__fp_powser+0x18>
    3d0c:	df 90       	pop	r13
    3d0e:	ef 90       	pop	r14
    3d10:	ff 90       	pop	r15
    3d12:	0f 91       	pop	r16
    3d14:	1f 91       	pop	r17
    3d16:	cf 91       	pop	r28
    3d18:	df 91       	pop	r29
    3d1a:	08 95       	ret

00003d1c <__fp_pscA>:
    3d1c:	00 24       	eor	r0, r0
    3d1e:	0a 94       	dec	r0
    3d20:	16 16       	cp	r1, r22
    3d22:	17 06       	cpc	r1, r23
    3d24:	18 06       	cpc	r1, r24
    3d26:	09 06       	cpc	r0, r25
    3d28:	08 95       	ret

00003d2a <__fp_pscB>:
    3d2a:	00 24       	eor	r0, r0
    3d2c:	0a 94       	dec	r0
    3d2e:	12 16       	cp	r1, r18
    3d30:	13 06       	cpc	r1, r19
    3d32:	14 06       	cpc	r1, r20
    3d34:	05 06       	cpc	r0, r21
    3d36:	08 95       	ret
    3d38:	c9 cf       	rjmp	.-110    	; 0x3ccc <__fp_nan>

00003d3a <__fp_rempio2>:
    3d3a:	50 d0       	rcall	.+160    	; 0x3ddc <__fp_splitA>
    3d3c:	e8 f3       	brcs	.-6      	; 0x3d38 <__fp_pscB+0xe>
    3d3e:	e8 94       	clt
    3d40:	e0 e0       	ldi	r30, 0x00	; 0
    3d42:	bb 27       	eor	r27, r27
    3d44:	9f 57       	subi	r25, 0x7F	; 127
    3d46:	f0 f0       	brcs	.+60     	; 0x3d84 <__fp_rempio2+0x4a>
    3d48:	2a ed       	ldi	r18, 0xDA	; 218
    3d4a:	3f e0       	ldi	r19, 0x0F	; 15
    3d4c:	49 ec       	ldi	r20, 0xC9	; 201
    3d4e:	06 c0       	rjmp	.+12     	; 0x3d5c <__fp_rempio2+0x22>
    3d50:	ee 0f       	add	r30, r30
    3d52:	bb 0f       	add	r27, r27
    3d54:	66 1f       	adc	r22, r22
    3d56:	77 1f       	adc	r23, r23
    3d58:	88 1f       	adc	r24, r24
    3d5a:	28 f0       	brcs	.+10     	; 0x3d66 <__fp_rempio2+0x2c>
    3d5c:	b2 3a       	cpi	r27, 0xA2	; 162
    3d5e:	62 07       	cpc	r22, r18
    3d60:	73 07       	cpc	r23, r19
    3d62:	84 07       	cpc	r24, r20
    3d64:	28 f0       	brcs	.+10     	; 0x3d70 <__fp_rempio2+0x36>
    3d66:	b2 5a       	subi	r27, 0xA2	; 162
    3d68:	62 0b       	sbc	r22, r18
    3d6a:	73 0b       	sbc	r23, r19
    3d6c:	84 0b       	sbc	r24, r20
    3d6e:	e3 95       	inc	r30
    3d70:	9a 95       	dec	r25
    3d72:	72 f7       	brpl	.-36     	; 0x3d50 <__fp_rempio2+0x16>
    3d74:	80 38       	cpi	r24, 0x80	; 128
    3d76:	30 f4       	brcc	.+12     	; 0x3d84 <__fp_rempio2+0x4a>
    3d78:	9a 95       	dec	r25
    3d7a:	bb 0f       	add	r27, r27
    3d7c:	66 1f       	adc	r22, r22
    3d7e:	77 1f       	adc	r23, r23
    3d80:	88 1f       	adc	r24, r24
    3d82:	d2 f7       	brpl	.-12     	; 0x3d78 <__fp_rempio2+0x3e>
    3d84:	90 48       	sbci	r25, 0x80	; 128
    3d86:	06 c1       	rjmp	.+524    	; 0x3f94 <__fp_mpack_finite>

00003d88 <__fp_round>:
    3d88:	09 2e       	mov	r0, r25
    3d8a:	03 94       	inc	r0
    3d8c:	00 0c       	add	r0, r0
    3d8e:	11 f4       	brne	.+4      	; 0x3d94 <__fp_round+0xc>
    3d90:	88 23       	and	r24, r24
    3d92:	52 f0       	brmi	.+20     	; 0x3da8 <__fp_round+0x20>
    3d94:	bb 0f       	add	r27, r27
    3d96:	40 f4       	brcc	.+16     	; 0x3da8 <__fp_round+0x20>
    3d98:	bf 2b       	or	r27, r31
    3d9a:	11 f4       	brne	.+4      	; 0x3da0 <__fp_round+0x18>
    3d9c:	60 ff       	sbrs	r22, 0
    3d9e:	04 c0       	rjmp	.+8      	; 0x3da8 <__fp_round+0x20>
    3da0:	6f 5f       	subi	r22, 0xFF	; 255
    3da2:	7f 4f       	sbci	r23, 0xFF	; 255
    3da4:	8f 4f       	sbci	r24, 0xFF	; 255
    3da6:	9f 4f       	sbci	r25, 0xFF	; 255
    3da8:	08 95       	ret

00003daa <__fp_sinus>:
    3daa:	ef 93       	push	r30
    3dac:	e0 ff       	sbrs	r30, 0
    3dae:	06 c0       	rjmp	.+12     	; 0x3dbc <__fp_sinus+0x12>
    3db0:	a2 ea       	ldi	r26, 0xA2	; 162
    3db2:	2a ed       	ldi	r18, 0xDA	; 218
    3db4:	3f e0       	ldi	r19, 0x0F	; 15
    3db6:	49 ec       	ldi	r20, 0xC9	; 201
    3db8:	5f eb       	ldi	r21, 0xBF	; 191
    3dba:	cc dd       	rcall	.-1128   	; 0x3954 <__addsf3x>
    3dbc:	e5 df       	rcall	.-54     	; 0x3d88 <__fp_round>
    3dbe:	0f 90       	pop	r0
    3dc0:	03 94       	inc	r0
    3dc2:	01 fc       	sbrc	r0, 1
    3dc4:	90 58       	subi	r25, 0x80	; 128
    3dc6:	e1 e1       	ldi	r30, 0x11	; 17
    3dc8:	f1 e0       	ldi	r31, 0x01	; 1
    3dca:	f7 c0       	rjmp	.+494    	; 0x3fba <__fp_powsodd>

00003dcc <__fp_split3>:
    3dcc:	57 fd       	sbrc	r21, 7
    3dce:	90 58       	subi	r25, 0x80	; 128
    3dd0:	44 0f       	add	r20, r20
    3dd2:	55 1f       	adc	r21, r21
    3dd4:	59 f0       	breq	.+22     	; 0x3dec <__fp_splitA+0x10>
    3dd6:	5f 3f       	cpi	r21, 0xFF	; 255
    3dd8:	71 f0       	breq	.+28     	; 0x3df6 <__fp_splitA+0x1a>
    3dda:	47 95       	ror	r20

00003ddc <__fp_splitA>:
    3ddc:	88 0f       	add	r24, r24
    3dde:	97 fb       	bst	r25, 7
    3de0:	99 1f       	adc	r25, r25
    3de2:	61 f0       	breq	.+24     	; 0x3dfc <__fp_splitA+0x20>
    3de4:	9f 3f       	cpi	r25, 0xFF	; 255
    3de6:	79 f0       	breq	.+30     	; 0x3e06 <__fp_splitA+0x2a>
    3de8:	87 95       	ror	r24
    3dea:	08 95       	ret
    3dec:	12 16       	cp	r1, r18
    3dee:	13 06       	cpc	r1, r19
    3df0:	14 06       	cpc	r1, r20
    3df2:	55 1f       	adc	r21, r21
    3df4:	f2 cf       	rjmp	.-28     	; 0x3dda <__fp_split3+0xe>
    3df6:	46 95       	lsr	r20
    3df8:	f1 df       	rcall	.-30     	; 0x3ddc <__fp_splitA>
    3dfa:	08 c0       	rjmp	.+16     	; 0x3e0c <__fp_splitA+0x30>
    3dfc:	16 16       	cp	r1, r22
    3dfe:	17 06       	cpc	r1, r23
    3e00:	18 06       	cpc	r1, r24
    3e02:	99 1f       	adc	r25, r25
    3e04:	f1 cf       	rjmp	.-30     	; 0x3de8 <__fp_splitA+0xc>
    3e06:	86 95       	lsr	r24
    3e08:	71 05       	cpc	r23, r1
    3e0a:	61 05       	cpc	r22, r1
    3e0c:	08 94       	sec
    3e0e:	08 95       	ret

00003e10 <__fp_zero>:
    3e10:	e8 94       	clt

00003e12 <__fp_szero>:
    3e12:	bb 27       	eor	r27, r27
    3e14:	66 27       	eor	r22, r22
    3e16:	77 27       	eor	r23, r23
    3e18:	cb 01       	movw	r24, r22
    3e1a:	97 f9       	bld	r25, 7
    3e1c:	08 95       	ret

00003e1e <__gesf2>:
    3e1e:	2c df       	rcall	.-424    	; 0x3c78 <__fp_cmp>
    3e20:	08 f4       	brcc	.+2      	; 0x3e24 <__gesf2+0x6>
    3e22:	8f ef       	ldi	r24, 0xFF	; 255
    3e24:	08 95       	ret

00003e26 <inverse>:
    3e26:	9b 01       	movw	r18, r22
    3e28:	ac 01       	movw	r20, r24
    3e2a:	60 e0       	ldi	r22, 0x00	; 0
    3e2c:	70 e0       	ldi	r23, 0x00	; 0
    3e2e:	80 e8       	ldi	r24, 0x80	; 128
    3e30:	9f e3       	ldi	r25, 0x3F	; 63
    3e32:	4c ce       	rjmp	.-872    	; 0x3acc <__divsf3>

00003e34 <__mulsf3>:
    3e34:	0b d0       	rcall	.+22     	; 0x3e4c <__mulsf3x>
    3e36:	a8 cf       	rjmp	.-176    	; 0x3d88 <__fp_round>
    3e38:	71 df       	rcall	.-286    	; 0x3d1c <__fp_pscA>
    3e3a:	28 f0       	brcs	.+10     	; 0x3e46 <__mulsf3+0x12>
    3e3c:	76 df       	rcall	.-276    	; 0x3d2a <__fp_pscB>
    3e3e:	18 f0       	brcs	.+6      	; 0x3e46 <__mulsf3+0x12>
    3e40:	95 23       	and	r25, r21
    3e42:	09 f0       	breq	.+2      	; 0x3e46 <__mulsf3+0x12>
    3e44:	3d cf       	rjmp	.-390    	; 0x3cc0 <__fp_inf>
    3e46:	42 cf       	rjmp	.-380    	; 0x3ccc <__fp_nan>
    3e48:	11 24       	eor	r1, r1
    3e4a:	e3 cf       	rjmp	.-58     	; 0x3e12 <__fp_szero>

00003e4c <__mulsf3x>:
    3e4c:	bf df       	rcall	.-130    	; 0x3dcc <__fp_split3>
    3e4e:	a0 f3       	brcs	.-24     	; 0x3e38 <__mulsf3+0x4>

00003e50 <__mulsf3_pse>:
    3e50:	95 9f       	mul	r25, r21
    3e52:	d1 f3       	breq	.-12     	; 0x3e48 <__mulsf3+0x14>
    3e54:	95 0f       	add	r25, r21
    3e56:	50 e0       	ldi	r21, 0x00	; 0
    3e58:	55 1f       	adc	r21, r21
    3e5a:	62 9f       	mul	r22, r18
    3e5c:	f0 01       	movw	r30, r0
    3e5e:	72 9f       	mul	r23, r18
    3e60:	bb 27       	eor	r27, r27
    3e62:	f0 0d       	add	r31, r0
    3e64:	b1 1d       	adc	r27, r1
    3e66:	63 9f       	mul	r22, r19
    3e68:	aa 27       	eor	r26, r26
    3e6a:	f0 0d       	add	r31, r0
    3e6c:	b1 1d       	adc	r27, r1
    3e6e:	aa 1f       	adc	r26, r26
    3e70:	64 9f       	mul	r22, r20
    3e72:	66 27       	eor	r22, r22
    3e74:	b0 0d       	add	r27, r0
    3e76:	a1 1d       	adc	r26, r1
    3e78:	66 1f       	adc	r22, r22
    3e7a:	82 9f       	mul	r24, r18
    3e7c:	22 27       	eor	r18, r18
    3e7e:	b0 0d       	add	r27, r0
    3e80:	a1 1d       	adc	r26, r1
    3e82:	62 1f       	adc	r22, r18
    3e84:	73 9f       	mul	r23, r19
    3e86:	b0 0d       	add	r27, r0
    3e88:	a1 1d       	adc	r26, r1
    3e8a:	62 1f       	adc	r22, r18
    3e8c:	83 9f       	mul	r24, r19
    3e8e:	a0 0d       	add	r26, r0
    3e90:	61 1d       	adc	r22, r1
    3e92:	22 1f       	adc	r18, r18
    3e94:	74 9f       	mul	r23, r20
    3e96:	33 27       	eor	r19, r19
    3e98:	a0 0d       	add	r26, r0
    3e9a:	61 1d       	adc	r22, r1
    3e9c:	23 1f       	adc	r18, r19
    3e9e:	84 9f       	mul	r24, r20
    3ea0:	60 0d       	add	r22, r0
    3ea2:	21 1d       	adc	r18, r1
    3ea4:	82 2f       	mov	r24, r18
    3ea6:	76 2f       	mov	r23, r22
    3ea8:	6a 2f       	mov	r22, r26
    3eaa:	11 24       	eor	r1, r1
    3eac:	9f 57       	subi	r25, 0x7F	; 127
    3eae:	50 40       	sbci	r21, 0x00	; 0
    3eb0:	8a f0       	brmi	.+34     	; 0x3ed4 <__mulsf3_pse+0x84>
    3eb2:	e1 f0       	breq	.+56     	; 0x3eec <__mulsf3_pse+0x9c>
    3eb4:	88 23       	and	r24, r24
    3eb6:	4a f0       	brmi	.+18     	; 0x3eca <__mulsf3_pse+0x7a>
    3eb8:	ee 0f       	add	r30, r30
    3eba:	ff 1f       	adc	r31, r31
    3ebc:	bb 1f       	adc	r27, r27
    3ebe:	66 1f       	adc	r22, r22
    3ec0:	77 1f       	adc	r23, r23
    3ec2:	88 1f       	adc	r24, r24
    3ec4:	91 50       	subi	r25, 0x01	; 1
    3ec6:	50 40       	sbci	r21, 0x00	; 0
    3ec8:	a9 f7       	brne	.-22     	; 0x3eb4 <__mulsf3_pse+0x64>
    3eca:	9e 3f       	cpi	r25, 0xFE	; 254
    3ecc:	51 05       	cpc	r21, r1
    3ece:	70 f0       	brcs	.+28     	; 0x3eec <__mulsf3_pse+0x9c>
    3ed0:	f7 ce       	rjmp	.-530    	; 0x3cc0 <__fp_inf>
    3ed2:	9f cf       	rjmp	.-194    	; 0x3e12 <__fp_szero>
    3ed4:	5f 3f       	cpi	r21, 0xFF	; 255
    3ed6:	ec f3       	brlt	.-6      	; 0x3ed2 <__mulsf3_pse+0x82>
    3ed8:	98 3e       	cpi	r25, 0xE8	; 232
    3eda:	dc f3       	brlt	.-10     	; 0x3ed2 <__mulsf3_pse+0x82>
    3edc:	86 95       	lsr	r24
    3ede:	77 95       	ror	r23
    3ee0:	67 95       	ror	r22
    3ee2:	b7 95       	ror	r27
    3ee4:	f7 95       	ror	r31
    3ee6:	e7 95       	ror	r30
    3ee8:	9f 5f       	subi	r25, 0xFF	; 255
    3eea:	c1 f7       	brne	.-16     	; 0x3edc <__mulsf3_pse+0x8c>
    3eec:	fe 2b       	or	r31, r30
    3eee:	88 0f       	add	r24, r24
    3ef0:	91 1d       	adc	r25, r1
    3ef2:	96 95       	lsr	r25
    3ef4:	87 95       	ror	r24
    3ef6:	97 f9       	bld	r25, 7
    3ef8:	08 95       	ret

00003efa <sin>:
    3efa:	9f 93       	push	r25
    3efc:	1e df       	rcall	.-452    	; 0x3d3a <__fp_rempio2>
    3efe:	0f 90       	pop	r0
    3f00:	07 fc       	sbrc	r0, 7
    3f02:	ee 5f       	subi	r30, 0xFE	; 254
    3f04:	52 cf       	rjmp	.-348    	; 0x3daa <__fp_sinus>
    3f06:	11 f4       	brne	.+4      	; 0x3f0c <sin+0x12>
    3f08:	0e f4       	brtc	.+2      	; 0x3f0c <sin+0x12>
    3f0a:	e0 ce       	rjmp	.-576    	; 0x3ccc <__fp_nan>
    3f0c:	41 c0       	rjmp	.+130    	; 0x3f90 <__fp_mpack>

00003f0e <sqrt>:
    3f0e:	66 df       	rcall	.-308    	; 0x3ddc <__fp_splitA>
    3f10:	d0 f3       	brcs	.-12     	; 0x3f06 <sin+0xc>
    3f12:	99 23       	and	r25, r25
    3f14:	d9 f3       	breq	.-10     	; 0x3f0c <sin+0x12>
    3f16:	ce f3       	brts	.-14     	; 0x3f0a <sin+0x10>
    3f18:	9f 57       	subi	r25, 0x7F	; 127
    3f1a:	55 0b       	sbc	r21, r21
    3f1c:	87 ff       	sbrs	r24, 7
    3f1e:	46 d0       	rcall	.+140    	; 0x3fac <__fp_norm2>
    3f20:	00 24       	eor	r0, r0
    3f22:	a0 e6       	ldi	r26, 0x60	; 96
    3f24:	40 ea       	ldi	r20, 0xA0	; 160
    3f26:	90 01       	movw	r18, r0
    3f28:	80 58       	subi	r24, 0x80	; 128
    3f2a:	56 95       	lsr	r21
    3f2c:	97 95       	ror	r25
    3f2e:	28 f4       	brcc	.+10     	; 0x3f3a <sqrt+0x2c>
    3f30:	80 5c       	subi	r24, 0xC0	; 192
    3f32:	66 0f       	add	r22, r22
    3f34:	77 1f       	adc	r23, r23
    3f36:	88 1f       	adc	r24, r24
    3f38:	20 f0       	brcs	.+8      	; 0x3f42 <sqrt+0x34>
    3f3a:	26 17       	cp	r18, r22
    3f3c:	37 07       	cpc	r19, r23
    3f3e:	48 07       	cpc	r20, r24
    3f40:	30 f4       	brcc	.+12     	; 0x3f4e <sqrt+0x40>
    3f42:	62 1b       	sub	r22, r18
    3f44:	73 0b       	sbc	r23, r19
    3f46:	84 0b       	sbc	r24, r20
    3f48:	20 29       	or	r18, r0
    3f4a:	31 29       	or	r19, r1
    3f4c:	4a 2b       	or	r20, r26
    3f4e:	a6 95       	lsr	r26
    3f50:	17 94       	ror	r1
    3f52:	07 94       	ror	r0
    3f54:	20 25       	eor	r18, r0
    3f56:	31 25       	eor	r19, r1
    3f58:	4a 27       	eor	r20, r26
    3f5a:	58 f7       	brcc	.-42     	; 0x3f32 <sqrt+0x24>
    3f5c:	66 0f       	add	r22, r22
    3f5e:	77 1f       	adc	r23, r23
    3f60:	88 1f       	adc	r24, r24
    3f62:	20 f0       	brcs	.+8      	; 0x3f6c <sqrt+0x5e>
    3f64:	26 17       	cp	r18, r22
    3f66:	37 07       	cpc	r19, r23
    3f68:	48 07       	cpc	r20, r24
    3f6a:	30 f4       	brcc	.+12     	; 0x3f78 <sqrt+0x6a>
    3f6c:	62 0b       	sbc	r22, r18
    3f6e:	73 0b       	sbc	r23, r19
    3f70:	84 0b       	sbc	r24, r20
    3f72:	20 0d       	add	r18, r0
    3f74:	31 1d       	adc	r19, r1
    3f76:	41 1d       	adc	r20, r1
    3f78:	a0 95       	com	r26
    3f7a:	81 f7       	brne	.-32     	; 0x3f5c <sqrt+0x4e>
    3f7c:	b9 01       	movw	r22, r18
    3f7e:	84 2f       	mov	r24, r20
    3f80:	91 58       	subi	r25, 0x81	; 129
    3f82:	88 0f       	add	r24, r24
    3f84:	96 95       	lsr	r25
    3f86:	87 95       	ror	r24
    3f88:	08 95       	ret

00003f8a <square>:
    3f8a:	9b 01       	movw	r18, r22
    3f8c:	ac 01       	movw	r20, r24
    3f8e:	52 cf       	rjmp	.-348    	; 0x3e34 <__mulsf3>

00003f90 <__fp_mpack>:
    3f90:	9f 3f       	cpi	r25, 0xFF	; 255
    3f92:	31 f0       	breq	.+12     	; 0x3fa0 <__fp_mpack_finite+0xc>

00003f94 <__fp_mpack_finite>:
    3f94:	91 50       	subi	r25, 0x01	; 1
    3f96:	20 f4       	brcc	.+8      	; 0x3fa0 <__fp_mpack_finite+0xc>
    3f98:	87 95       	ror	r24
    3f9a:	77 95       	ror	r23
    3f9c:	67 95       	ror	r22
    3f9e:	b7 95       	ror	r27
    3fa0:	88 0f       	add	r24, r24
    3fa2:	91 1d       	adc	r25, r1
    3fa4:	96 95       	lsr	r25
    3fa6:	87 95       	ror	r24
    3fa8:	97 f9       	bld	r25, 7
    3faa:	08 95       	ret

00003fac <__fp_norm2>:
    3fac:	91 50       	subi	r25, 0x01	; 1
    3fae:	50 40       	sbci	r21, 0x00	; 0
    3fb0:	66 0f       	add	r22, r22
    3fb2:	77 1f       	adc	r23, r23
    3fb4:	88 1f       	adc	r24, r24
    3fb6:	d2 f7       	brpl	.-12     	; 0x3fac <__fp_norm2>
    3fb8:	08 95       	ret

00003fba <__fp_powsodd>:
    3fba:	9f 93       	push	r25
    3fbc:	8f 93       	push	r24
    3fbe:	7f 93       	push	r23
    3fc0:	6f 93       	push	r22
    3fc2:	ff 93       	push	r31
    3fc4:	ef 93       	push	r30
    3fc6:	9b 01       	movw	r18, r22
    3fc8:	ac 01       	movw	r20, r24
    3fca:	34 df       	rcall	.-408    	; 0x3e34 <__mulsf3>
    3fcc:	ef 91       	pop	r30
    3fce:	ff 91       	pop	r31
    3fd0:	80 de       	rcall	.-768    	; 0x3cd2 <__fp_powser>
    3fd2:	2f 91       	pop	r18
    3fd4:	3f 91       	pop	r19
    3fd6:	4f 91       	pop	r20
    3fd8:	5f 91       	pop	r21
    3fda:	2c cf       	rjmp	.-424    	; 0x3e34 <__mulsf3>

00003fdc <__divmodhi4>:
    3fdc:	97 fb       	bst	r25, 7
    3fde:	07 2e       	mov	r0, r23
    3fe0:	16 f4       	brtc	.+4      	; 0x3fe6 <__divmodhi4+0xa>
    3fe2:	00 94       	com	r0
    3fe4:	06 d0       	rcall	.+12     	; 0x3ff2 <__divmodhi4_neg1>
    3fe6:	77 fd       	sbrc	r23, 7
    3fe8:	08 d0       	rcall	.+16     	; 0x3ffa <__divmodhi4_neg2>
    3fea:	0b d0       	rcall	.+22     	; 0x4002 <__udivmodhi4>
    3fec:	07 fc       	sbrc	r0, 7
    3fee:	05 d0       	rcall	.+10     	; 0x3ffa <__divmodhi4_neg2>
    3ff0:	3e f4       	brtc	.+14     	; 0x4000 <__divmodhi4_exit>

00003ff2 <__divmodhi4_neg1>:
    3ff2:	90 95       	com	r25
    3ff4:	81 95       	neg	r24
    3ff6:	9f 4f       	sbci	r25, 0xFF	; 255
    3ff8:	08 95       	ret

00003ffa <__divmodhi4_neg2>:
    3ffa:	70 95       	com	r23
    3ffc:	61 95       	neg	r22
    3ffe:	7f 4f       	sbci	r23, 0xFF	; 255

00004000 <__divmodhi4_exit>:
    4000:	08 95       	ret

00004002 <__udivmodhi4>:
    4002:	aa 1b       	sub	r26, r26
    4004:	bb 1b       	sub	r27, r27
    4006:	51 e1       	ldi	r21, 0x11	; 17
    4008:	07 c0       	rjmp	.+14     	; 0x4018 <__udivmodhi4_ep>

0000400a <__udivmodhi4_loop>:
    400a:	aa 1f       	adc	r26, r26
    400c:	bb 1f       	adc	r27, r27
    400e:	a6 17       	cp	r26, r22
    4010:	b7 07       	cpc	r27, r23
    4012:	10 f0       	brcs	.+4      	; 0x4018 <__udivmodhi4_ep>
    4014:	a6 1b       	sub	r26, r22
    4016:	b7 0b       	sbc	r27, r23

00004018 <__udivmodhi4_ep>:
    4018:	88 1f       	adc	r24, r24
    401a:	99 1f       	adc	r25, r25
    401c:	5a 95       	dec	r21
    401e:	a9 f7       	brne	.-22     	; 0x400a <__udivmodhi4_loop>
    4020:	80 95       	com	r24
    4022:	90 95       	com	r25
    4024:	bc 01       	movw	r22, r24
    4026:	cd 01       	movw	r24, r26
    4028:	08 95       	ret

0000402a <__tablejump2__>:
    402a:	ee 0f       	add	r30, r30
    402c:	ff 1f       	adc	r31, r31
    402e:	88 1f       	adc	r24, r24
    4030:	8b bf       	out	0x3b, r24	; 59
    4032:	07 90       	elpm	r0, Z+
    4034:	f6 91       	elpm	r31, Z
    4036:	e0 2d       	mov	r30, r0
    4038:	19 94       	eijmp

0000403a <_exit>:
    403a:	f8 94       	cli

0000403c <__stop_program>:
    403c:	ff cf       	rjmp	.-2      	; 0x403c <__stop_program>
